
========================================================================

** ELF Header Information

    File Name: .\cm0.axf

    Machine class: ELFCLASS32 (32-bit)
    Data encoding: ELFDATA2LSB (Little endian)
    Header version: EV_CURRENT (Current version)
    Operating System ABI: none
    ABI Version: 0
    File Type: ET_EXEC (Executable) (2)
    Machine: EM_ARM (ARM)

    Image Entry point: 0x00000061
    Flags: EF_ARM_HASENTRY + EF_ARM_ABI_FLOAT_SOFT (0x05000202)

    ARM ELF revision: 5 (ABI version 2)

    Conforms to Soft float procedure-call standard

    Built with
    Component: ARM Compiler 5.06 update 6 (build 750) Tool: armasm [4d35ec]
    Component: ARM Compiler 5.06 update 6 (build 750) Tool: armlink [4d35ed]

    Header size: 52 bytes (0x34)
    Program header entry size: 32 bytes (0x20)
    Section header entry size: 40 bytes (0x28)

    Program header entries: 1
    Section header entries: 16

    Program header offset: 74816 (0x00012440)
    Section header offset: 74848 (0x00012460)

    Section header string table index: 15

========================================================================

** Program header #0

    Type          : PT_LOAD (1)
    File Offset   : 52 (0x34)
    Virtual Addr  : 0x00000000
    Physical Addr : 0x00000000
    Size in file  : 6324 bytes (0x18b4)
    Size in memory: 7368 bytes (0x1cc8)
    Flags         : PF_X + PF_W + PF_R + PF_ARM_ENTRY (0x80000007)
    Alignment     : 8


========================================================================

** Section #1

    Name        : ER_IROM1
    Type        : SHT_PROGBITS (0x00000001)
    Flags       : SHF_ALLOC + SHF_EXECINSTR (0x00000006)
    Addr        : 0x00000000
    File Offset : 52 (0x34)
    Size        : 6312 bytes (0x18a8)
    Link        : SHN_UNDEF
    Info        : 0
    Alignment   : 4
    Entry Size  : 0

    $d.realdata
    RESET
    __Vectors
        0x00000000:    20000420     ..     DCD    536871968
        0x00000004:    00000075    u...    DCD    117
        0x00000008:    00000081    ....    DCD    129
        0x0000000c:    00000089    ....    DCD    137
        0x00000010:    00000091    ....    DCD    145
        0x00000014:    00000099    ....    DCD    153
        0x00000018:    000000a1    ....    DCD    161
        0x0000001c:    00000000    ....    DCD    0
        0x00000020:    00000000    ....    DCD    0
        0x00000024:    00000000    ....    DCD    0
        0x00000028:    00000000    ....    DCD    0
        0x0000002c:    000000a9    ....    DCD    169
        0x00000030:    000000b1    ....    DCD    177
        0x00000034:    00000000    ....    DCD    0
        0x00000038:    000000b9    ....    DCD    185
        0x0000003c:    000000c1    ....    DCD    193
        0x00000040:    000000d1    ....    DCD    209
        0x00000044:    000000c9    ....    DCD    201
        0x00000048:    000000d9    ....    DCD    217
        0x0000004c:    000000e1    ....    DCD    225
        0x00000050:    000000e9    ....    DCD    233
        0x00000054:    000000f1    ....    DCD    241
        0x00000058:    000000f9    ....    DCD    249
        0x0000005c:    00000101    ....    DCD    257
    $t
    .ARM.Collect$$$$00000000
    .ARM.Collect$$$$00000001
    __Vectors_End
    __main
    _main_stk
        0x00000060:    4803        .H      LDR      r0,__lit__00000000 ; [0x70] = 0x20000420
        0x00000062:    4685        .F      MOV      sp,r0
    .ARM.Collect$$$$00000004
    _main_scatterload
        0x00000064:    f000f884    ....    BL       __scatterload ; 0x170
    .ARM.Collect$$$$00000008
    .ARM.Collect$$$$0000000A
    .ARM.Collect$$$$0000000B
    __main_after_scatterload
    _main_clock
    _main_cpp_init
    _main_init
        0x00000068:    4800        .H      LDR      r0,[pc,#0] ; [0x6c] = 0x111d
        0x0000006a:    4700        .G      BX       r0
    $d
        0x0000006c:    0000111d    ....    DCD    4381
    .ARM.Collect$$$$00002712
    __lit__00000000
    .ARM.Collect$$$$0000000D
    .ARM.Collect$$$$0000000F
    __rt_final_cpp
    __rt_final_exit
        0x00000070:    20000420     ..     DCD    536871968
    $t
    .text
    Reset_Handler
        0x00000074:    4824        $H      LDR      r0,[pc,#144] ; [0x108] = 0xd55
        0x00000076:    4680        .F      MOV      r8,r0
        0x00000078:    46c1        .F      MOV      r9,r8
        0x0000007a:    4780        .G      BLX      r0
        0x0000007c:    4823        #H      LDR      r0,[pc,#140] ; [0x10c] = 0x61
        0x0000007e:    4700        .G      BX       r0
    NMI_Handler
        0x00000080:    b500        ..      PUSH     {lr}
        0x00000082:    f000fd6e    ..n.    BL       NMIHandler ; 0xb62
        0x00000086:    bd00        ..      POP      {pc}
    HardFault_Handler
        0x00000088:    b500        ..      PUSH     {lr}
        0x0000008a:    f000f8a6    ....    BL       HardFaultHandler ; 0x1da
        0x0000008e:    bd00        ..      POP      {pc}
    MemManage_Handler
        0x00000090:    b500        ..      PUSH     {lr}
        0x00000092:    f000fd65    ..e.    BL       MemManageHandler ; 0xb60
        0x00000096:    bd00        ..      POP      {pc}
    BusFault_Handler
        0x00000098:    b500        ..      PUSH     {lr}
        0x0000009a:    f000f89c    ....    BL       BusFaultHandler ; 0x1d6
        0x0000009e:    bd00        ..      POP      {pc}
    UsageFault_Handler
        0x000000a0:    b500        ..      PUSH     {lr}
        0x000000a2:    f000fe7e    ..~.    BL       UsageFaultHandler ; 0xda2
        0x000000a6:    bd00        ..      POP      {pc}
    SVC_Handler
        0x000000a8:    b500        ..      PUSH     {lr}
        0x000000aa:    f000fe2b    ..+.    BL       SVCHandler ; 0xd04
        0x000000ae:    bd00        ..      POP      {pc}
    DebugMon_Handler
        0x000000b0:    b500        ..      PUSH     {lr}
        0x000000b2:    f000f891    ....    BL       DebugMonHandler ; 0x1d8
        0x000000b6:    bd00        ..      POP      {pc}
    PendSV_Handler
        0x000000b8:    b500        ..      PUSH     {lr}
        0x000000ba:    f000fd5d    ..].    BL       PendSVHandler ; 0xb78
        0x000000be:    bd00        ..      POP      {pc}
    SysTick_Handler
        0x000000c0:    b500        ..      PUSH     {lr}
        0x000000c2:    f000fe39    ..9.    BL       SysTickHandler ; 0xd38
        0x000000c6:    bd00        ..      POP      {pc}
    UARTRX_Handler
        0x000000c8:    b500        ..      PUSH     {lr}
        0x000000ca:    f000fe58    ..X.    BL       UARTRXHandler ; 0xd7e
        0x000000ce:    bd00        ..      POP      {pc}
    UARTTX_Handler
        0x000000d0:    b500        ..      PUSH     {lr}
        0x000000d2:    f000fe5d    ..].    BL       UARTTXHandler ; 0xd90
        0x000000d6:    bd00        ..      POP      {pc}
    UARTOVR_Handler
        0x000000d8:    b500        ..      PUSH     {lr}
        0x000000da:    f000fe4f    ..O.    BL       UARTOVRHandler ; 0xd7c
        0x000000de:    bd00        ..      POP      {pc}
    KEY0_Handler
        0x000000e0:    b507        ..      PUSH     {r0-r2,lr}
        0x000000e2:    f000f881    ....    BL       KEY0 ; 0x1e8
        0x000000e6:    bd07        ..      POP      {r0-r2,pc}
    KEY1_Handler
        0x000000e8:    b507        ..      PUSH     {r0-r2,lr}
        0x000000ea:    f000f89f    ....    BL       KEY1 ; 0x22c
        0x000000ee:    bd07        ..      POP      {r0-r2,pc}
    KEY2_Handler
        0x000000f0:    b507        ..      PUSH     {r0-r2,lr}
        0x000000f2:    f000f8a0    ....    BL       KEY2 ; 0x236
        0x000000f6:    bd07        ..      POP      {r0-r2,pc}
    KEY3_Handler
        0x000000f8:    b507        ..      PUSH     {r0-r2,lr}
        0x000000fa:    f000f8a1    ....    BL       KEY3 ; 0x240
        0x000000fe:    bd07        ..      POP      {r0-r2,pc}
    TIMER_Handler
        0x00000100:    b507        ..      PUSH     {r0-r2,lr}
        0x00000102:    f000fe29    ..).    BL       Timer_Handler ; 0xd58
        0x00000106:    bd07        ..      POP      {r0-r2,pc}
    $d
        0x00000108:    00000d55    U...    DCD    3413
        0x0000010c:    00000061    a...    DCD    97
    $t
    .text
    __aeabi_uldivmod
        0x00000110:    b5f0        ..      PUSH     {r4-r7,lr}
        0x00000112:    b41f        ..      PUSH     {r0-r4}
        0x00000114:    4606        .F      MOV      r6,r0
        0x00000116:    2000        .       MOVS     r0,#0
        0x00000118:    b082        ..      SUB      sp,sp,#8
        0x0000011a:    4605        .F      MOV      r5,r0
        0x0000011c:    2440        @$      MOVS     r4,#0x40
        0x0000011e:    9101        ..      STR      r1,[sp,#4]
        0x00000120:    9000        ..      STR      r0,[sp,#0]
        0x00000122:    e01b        ..      B        0x15c ; __aeabi_uldivmod + 76
        0x00000124:    9901        ..      LDR      r1,[sp,#4]
        0x00000126:    4622        "F      MOV      r2,r4
        0x00000128:    460f        .F      MOV      r7,r1
        0x0000012a:    4630        0F      MOV      r0,r6
        0x0000012c:    f000f842    ..B.    BL       __aeabi_llsr ; 0x1b4
        0x00000130:    9a04        ..      LDR      r2,[sp,#0x10]
        0x00000132:    9b05        ..      LDR      r3,[sp,#0x14]
        0x00000134:    1a80        ..      SUBS     r0,r0,r2
        0x00000136:    4199        .A      SBCS     r1,r1,r3
        0x00000138:    d310        ..      BCC      0x15c ; __aeabi_uldivmod + 76
        0x0000013a:    4610        .F      MOV      r0,r2
        0x0000013c:    4619        .F      MOV      r1,r3
        0x0000013e:    4622        "F      MOV      r2,r4
        0x00000140:    f000f828    ..(.    BL       __aeabi_llsl ; 0x194
        0x00000144:    1a36        6.      SUBS     r6,r6,r0
        0x00000146:    418f        .A      SBCS     r7,r7,r1
        0x00000148:    9701        ..      STR      r7,[sp,#4]
        0x0000014a:    4622        "F      MOV      r2,r4
        0x0000014c:    2001        .       MOVS     r0,#1
        0x0000014e:    2100        .!      MOVS     r1,#0
        0x00000150:    9f00        ..      LDR      r7,[sp,#0]
        0x00000152:    f000f81f    ....    BL       __aeabi_llsl ; 0x194
        0x00000156:    1838        8.      ADDS     r0,r7,r0
        0x00000158:    414d        MA      ADCS     r5,r5,r1
        0x0000015a:    9000        ..      STR      r0,[sp,#0]
        0x0000015c:    4620         F      MOV      r0,r4
        0x0000015e:    1e64        d.      SUBS     r4,r4,#1
        0x00000160:    2800        .(      CMP      r0,#0
        0x00000162:    dcdf        ..      BGT      0x124 ; __aeabi_uldivmod + 20
        0x00000164:    9b01        ..      LDR      r3,[sp,#4]
        0x00000166:    9800        ..      LDR      r0,[sp,#0]
        0x00000168:    4629        )F      MOV      r1,r5
        0x0000016a:    4632        2F      MOV      r2,r6
        0x0000016c:    b007        ..      ADD      sp,sp,#0x1c
        0x0000016e:    bdf0        ..      POP      {r4-r7,pc}
    .text
    __scatterload
    __scatterload_rt2
        0x00000170:    4c06        .L      LDR      r4,[pc,#24] ; [0x18c] = 0x1888
        0x00000172:    2501        .%      MOVS     r5,#1
        0x00000174:    4e06        .N      LDR      r6,[pc,#24] ; [0x190] = 0x18a8
        0x00000176:    e005        ..      B        0x184 ; __scatterload + 20
        0x00000178:    68e3        .h      LDR      r3,[r4,#0xc]
        0x0000017a:    cc07        ..      LDM      r4!,{r0-r2}
        0x0000017c:    432b        +C      ORRS     r3,r3,r5
        0x0000017e:    3c0c        .<      SUBS     r4,r4,#0xc
        0x00000180:    4798        .G      BLX      r3
        0x00000182:    3410        .4      ADDS     r4,r4,#0x10
        0x00000184:    42b4        .B      CMP      r4,r6
        0x00000186:    d3f7        ..      BCC      0x178 ; __scatterload + 8
        0x00000188:    f7ffff6e    ..n.    BL       __main_after_scatterload ; 0x68
    $d
        0x0000018c:    00001888    ....    DCD    6280
        0x00000190:    000018a8    ....    DCD    6312
    $t
    .text
    __aeabi_llsl
    _ll_shift_l
        0x00000194:    b510        ..      PUSH     {r4,lr}
        0x00000196:    2a20         *      CMP      r2,#0x20
        0x00000198:    db04        ..      BLT      0x1a4 ; __aeabi_llsl + 16
        0x0000019a:    4601        .F      MOV      r1,r0
        0x0000019c:    3a20         :      SUBS     r2,r2,#0x20
        0x0000019e:    4091        .@      LSLS     r1,r1,r2
        0x000001a0:    2000        .       MOVS     r0,#0
        0x000001a2:    bd10        ..      POP      {r4,pc}
        0x000001a4:    4091        .@      LSLS     r1,r1,r2
        0x000001a6:    2320         #      MOVS     r3,#0x20
        0x000001a8:    1a9c        ..      SUBS     r4,r3,r2
        0x000001aa:    4603        .F      MOV      r3,r0
        0x000001ac:    40e3        .@      LSRS     r3,r3,r4
        0x000001ae:    4319        .C      ORRS     r1,r1,r3
        0x000001b0:    4090        .@      LSLS     r0,r0,r2
        0x000001b2:    bd10        ..      POP      {r4,pc}
    .text
    __aeabi_llsr
    _ll_ushift_r
        0x000001b4:    b510        ..      PUSH     {r4,lr}
        0x000001b6:    2a20         *      CMP      r2,#0x20
        0x000001b8:    db04        ..      BLT      0x1c4 ; __aeabi_llsr + 16
        0x000001ba:    4608        .F      MOV      r0,r1
        0x000001bc:    3a20         :      SUBS     r2,r2,#0x20
        0x000001be:    40d0        .@      LSRS     r0,r0,r2
        0x000001c0:    2100        .!      MOVS     r1,#0
        0x000001c2:    bd10        ..      POP      {r4,pc}
        0x000001c4:    460b        .F      MOV      r3,r1
        0x000001c6:    40d3        .@      LSRS     r3,r3,r2
        0x000001c8:    40d0        .@      LSRS     r0,r0,r2
        0x000001ca:    2420         $      MOVS     r4,#0x20
        0x000001cc:    1aa2        ..      SUBS     r2,r4,r2
        0x000001ce:    4091        .@      LSLS     r1,r1,r2
        0x000001d0:    4308        .C      ORRS     r0,r0,r1
        0x000001d2:    4619        .F      MOV      r1,r3
        0x000001d4:    bd10        ..      POP      {r4,pc}
    i.BusFaultHandler
    BusFaultHandler
        0x000001d6:    4770        pG      BX       lr
    i.DebugMonHandler
    DebugMonHandler
        0x000001d8:    4770        pG      BX       lr
    i.HardFaultHandler
    HardFaultHandler
        0x000001da:    4770        pG      BX       lr
    i.Is_SPI_Ready
    Is_SPI_Ready
        0x000001dc:    4801        .H      LDR      r0,[pc,#4] ; [0x1e4] = 0x40004000
        0x000001de:    6940        @i      LDR      r0,[r0,#0x14]
        0x000001e0:    b2c0        ..      UXTB     r0,r0
        0x000001e2:    4770        pG      BX       lr
    $d
        0x000001e4:    40004000    .@.@    DCD    1073758208
    $t
    i.KEY0
    KEY0
        0x000001e8:    b570        p.      PUSH     {r4-r6,lr}
        0x000001ea:    2000        .       MOVS     r0,#0
        0x000001ec:    f000fc98    ....    BL       LED_toggle ; 0xb20
        0x000001f0:    f001f80a    ....    BL       photo ; 0x1208
        0x000001f4:    2400        .$      MOVS     r4,#0
        0x000001f6:    e014        ..      B        0x222 ; KEY0 + 58
        0x000001f8:    2500        .%      MOVS     r5,#0
        0x000001fa:    e00c        ..      B        0x216 ; KEY0 + 46
        0x000001fc:    2005        .       MOVS     r0,#5
        0x000001fe:    01c0        ..      LSLS     r0,r0,#7
        0x00000200:    4360        `C      MULS     r0,r4,r0
        0x00000202:    4909        .I      LDR      r1,[pc,#36] ; [0x228] = 0x40010000
        0x00000204:    1840        @.      ADDS     r0,r0,r1
        0x00000206:    0069        i.      LSLS     r1,r5,#1
        0x00000208:    5a42        BZ      LDRH     r2,[r0,r1]
        0x0000020a:    4621        !F      MOV      r1,r4
        0x0000020c:    4628        (F      MOV      r0,r5
        0x0000020e:    f000f88f    ....    BL       LCD_Fast_DrawPoint ; 0x330
        0x00000212:    1c68        h.      ADDS     r0,r5,#1
        0x00000214:    b285        ..      UXTH     r5,r0
        0x00000216:    20ff        .       MOVS     r0,#0xff
        0x00000218:    3041        A0      ADDS     r0,r0,#0x41
        0x0000021a:    4285        .B      CMP      r5,r0
        0x0000021c:    dbee        ..      BLT      0x1fc ; KEY0 + 20
        0x0000021e:    1c60        `.      ADDS     r0,r4,#1
        0x00000220:    b284        ..      UXTH     r4,r0
        0x00000222:    2cf0        .,      CMP      r4,#0xf0
        0x00000224:    dbe8        ..      BLT      0x1f8 ; KEY0 + 16
        0x00000226:    bd70        p.      POP      {r4-r6,pc}
    $d
        0x00000228:    40010000    ...@    DCD    1073807360
    $t
    i.KEY1
    KEY1
        0x0000022c:    b510        ..      PUSH     {r4,lr}
        0x0000022e:    2001        .       MOVS     r0,#1
        0x00000230:    f000fc76    ..v.    BL       LED_toggle ; 0xb20
        0x00000234:    bd10        ..      POP      {r4,pc}
    i.KEY2
    KEY2
        0x00000236:    b510        ..      PUSH     {r4,lr}
        0x00000238:    2002        .       MOVS     r0,#2
        0x0000023a:    f000fc71    ..q.    BL       LED_toggle ; 0xb20
        0x0000023e:    bd10        ..      POP      {r4,pc}
    i.KEY3
    KEY3
        0x00000240:    b510        ..      PUSH     {r4,lr}
        0x00000242:    2003        .       MOVS     r0,#3
        0x00000244:    f000fc6c    ..l.    BL       LED_toggle ; 0xb20
        0x00000248:    bd10        ..      POP      {r4,pc}
        0x0000024a:    0000        ..      MOVS     r0,r0
    i.LCD_Clear
    LCD_Clear
        0x0000024c:    b570        p.      PUSH     {r4-r6,lr}
        0x0000024e:    4606        .F      MOV      r6,r0
        0x00000250:    2400        .$      MOVS     r4,#0
        0x00000252:    4817        .H      LDR      r0,[pc,#92] ; [0x2b0] = 0x2000000c
        0x00000254:    8805        ..      LDRH     r5,[r0,#0]
        0x00000256:    8840        @.      LDRH     r0,[r0,#2]
        0x00000258:    4345        EC      MULS     r5,r0,r5
        0x0000025a:    4815        .H      LDR      r0,[pc,#84] ; [0x2b0] = 0x2000000c
        0x0000025c:    8880        ..      LDRH     r0,[r0,#4]
        0x0000025e:    4915        .I      LDR      r1,[pc,#84] ; [0x2b4] = 0x6804
        0x00000260:    4288        .B      CMP      r0,r1
        0x00000262:    d116        ..      BNE      0x292 ; LCD_Clear + 70
        0x00000264:    4812        .H      LDR      r0,[pc,#72] ; [0x2b0] = 0x2000000c
        0x00000266:    7980        .y      LDRB     r0,[r0,#6]
        0x00000268:    2801        .(      CMP      r0,#1
        0x0000026a:    d112        ..      BNE      0x292 ; LCD_Clear + 70
        0x0000026c:    2000        .       MOVS     r0,#0
        0x0000026e:    4910        .I      LDR      r1,[pc,#64] ; [0x2b0] = 0x2000000c
        0x00000270:    7188        .q      STRB     r0,[r1,#6]
        0x00000272:    202a        *       MOVS     r0,#0x2a
        0x00000274:    8148        H.      STRH     r0,[r1,#0xa]
        0x00000276:    202b        +       MOVS     r0,#0x2b
        0x00000278:    8188        ..      STRH     r0,[r1,#0xc]
        0x0000027a:    2100        .!      MOVS     r1,#0
        0x0000027c:    4608        .F      MOV      r0,r1
        0x0000027e:    f000fb45    ..E.    BL       LCD_SetCursor ; 0x90c
        0x00000282:    2001        .       MOVS     r0,#1
        0x00000284:    490a        .I      LDR      r1,[pc,#40] ; [0x2b0] = 0x2000000c
        0x00000286:    7188        .q      STRB     r0,[r1,#6]
        0x00000288:    202b        +       MOVS     r0,#0x2b
        0x0000028a:    8148        H.      STRH     r0,[r1,#0xa]
        0x0000028c:    202a        *       MOVS     r0,#0x2a
        0x0000028e:    8188        ..      STRH     r0,[r1,#0xc]
        0x00000290:    e003        ..      B        0x29a ; LCD_Clear + 78
        0x00000292:    2100        .!      MOVS     r1,#0
        0x00000294:    4608        .F      MOV      r0,r1
        0x00000296:    f000fb39    ..9.    BL       LCD_SetCursor ; 0x90c
        0x0000029a:    f000fc2f    ../.    BL       LCD_WriteRAM_Prepare ; 0xafc
        0x0000029e:    2400        .$      MOVS     r4,#0
        0x000002a0:    e003        ..      B        0x2aa ; LCD_Clear + 94
        0x000002a2:    4630        0F      MOV      r0,r6
        0x000002a4:    f000fc05    ....    BL       LCD_WR_DATA ; 0xab2
        0x000002a8:    1c64        d.      ADDS     r4,r4,#1
        0x000002aa:    42ac        .B      CMP      r4,r5
        0x000002ac:    d3f9        ..      BCC      0x2a2 ; LCD_Clear + 86
        0x000002ae:    bd70        p.      POP      {r4-r6,pc}
    $d
        0x000002b0:    2000000c    ...     DCD    536870924
        0x000002b4:    00006804    .h..    DCD    26628
    $t
    i.LCD_Display_Dir
    LCD_Display_Dir
        0x000002b8:    b510        ..      PUSH     {r4,lr}
        0x000002ba:    4604        .F      MOV      r4,r0
        0x000002bc:    2c00        .,      CMP      r4,#0
        0x000002be:    d11e        ..      BNE      0x2fe ; LCD_Display_Dir + 70
        0x000002c0:    4918        .I      LDR      r1,[pc,#96] ; [0x324] = 0x2000000c
        0x000002c2:    7188        .q      STRB     r0,[r1,#6]
        0x000002c4:    20f0        .       MOVS     r0,#0xf0
        0x000002c6:    8008        ..      STRH     r0,[r1,#0]
        0x000002c8:    20ff        .       MOVS     r0,#0xff
        0x000002ca:    3041        A0      ADDS     r0,r0,#0x41
        0x000002cc:    8048        H.      STRH     r0,[r1,#2]
        0x000002ce:    202c        ,       MOVS     r0,#0x2c
        0x000002d0:    8108        ..      STRH     r0,[r1,#8]
        0x000002d2:    202a        *       MOVS     r0,#0x2a
        0x000002d4:    8148        H.      STRH     r0,[r1,#0xa]
        0x000002d6:    202b        +       MOVS     r0,#0x2b
        0x000002d8:    8188        ..      STRH     r0,[r1,#0xc]
        0x000002da:    4608        .F      MOV      r0,r1
        0x000002dc:    8880        ..      LDRH     r0,[r0,#4]
        0x000002de:    4912        .I      LDR      r1,[pc,#72] ; [0x328] = 0x6804
        0x000002e0:    4288        .B      CMP      r0,r1
        0x000002e2:    d004        ..      BEQ      0x2ee ; LCD_Display_Dir + 54
        0x000002e4:    480f        .H      LDR      r0,[pc,#60] ; [0x324] = 0x2000000c
        0x000002e6:    8880        ..      LDRH     r0,[r0,#4]
        0x000002e8:    4910        .I      LDR      r1,[pc,#64] ; [0x32c] = 0x5310
        0x000002ea:    4288        .B      CMP      r0,r1
        0x000002ec:    d115        ..      BNE      0x31a ; LCD_Display_Dir + 98
        0x000002ee:    20ff        .       MOVS     r0,#0xff
        0x000002f0:    3041        A0      ADDS     r0,r0,#0x41
        0x000002f2:    490c        .I      LDR      r1,[pc,#48] ; [0x324] = 0x2000000c
        0x000002f4:    8008        ..      STRH     r0,[r1,#0]
        0x000002f6:    20ff        .       MOVS     r0,#0xff
        0x000002f8:    30e1        .0      ADDS     r0,r0,#0xe1
        0x000002fa:    8048        H.      STRH     r0,[r1,#2]
        0x000002fc:    e00d        ..      B        0x31a ; LCD_Display_Dir + 98
        0x000002fe:    2001        .       MOVS     r0,#1
        0x00000300:    4908        .I      LDR      r1,[pc,#32] ; [0x324] = 0x2000000c
        0x00000302:    7188        .q      STRB     r0,[r1,#6]
        0x00000304:    20ff        .       MOVS     r0,#0xff
        0x00000306:    3041        A0      ADDS     r0,r0,#0x41
        0x00000308:    8008        ..      STRH     r0,[r1,#0]
        0x0000030a:    20f0        .       MOVS     r0,#0xf0
        0x0000030c:    8048        H.      STRH     r0,[r1,#2]
        0x0000030e:    202c        ,       MOVS     r0,#0x2c
        0x00000310:    8108        ..      STRH     r0,[r1,#8]
        0x00000312:    202a        *       MOVS     r0,#0x2a
        0x00000314:    8148        H.      STRH     r0,[r1,#0xa]
        0x00000316:    202b        +       MOVS     r0,#0x2b
        0x00000318:    8188        ..      STRH     r0,[r1,#0xc]
        0x0000031a:    2000        .       MOVS     r0,#0
        0x0000031c:    f000f982    ....    BL       LCD_Scan_Dir ; 0x624
        0x00000320:    bd10        ..      POP      {r4,pc}
    $d
        0x00000322:    0000        ..      DCW    0
        0x00000324:    2000000c    ...     DCD    536870924
        0x00000328:    00006804    .h..    DCD    26628
        0x0000032c:    00005310    .S..    DCD    21264
    $t
    i.LCD_Fast_DrawPoint
    LCD_Fast_DrawPoint
        0x00000330:    b530        0.      PUSH     {r4,r5,lr}
        0x00000332:    4603        .F      MOV      r3,r0
        0x00000334:    460c        .F      MOV      r4,r1
        0x00000336:    4615        .F      MOV      r5,r2
        0x00000338:    4913        .I      LDR      r1,[pc,#76] ; [0x388] = 0x2000000c
        0x0000033a:    8948        H.      LDRH     r0,[r1,#0xa]
        0x0000033c:    f000fbcc    ....    BL       LCD_WR_REG ; 0xad8
        0x00000340:    1218        ..      ASRS     r0,r3,#8
        0x00000342:    f000fbb6    ....    BL       LCD_WR_DATA ; 0xab2
        0x00000346:    b2d8        ..      UXTB     r0,r3
        0x00000348:    f000fbb3    ....    BL       LCD_WR_DATA ; 0xab2
        0x0000034c:    490e        .I      LDR      r1,[pc,#56] ; [0x388] = 0x2000000c
        0x0000034e:    8988        ..      LDRH     r0,[r1,#0xc]
        0x00000350:    f000fbc2    ....    BL       LCD_WR_REG ; 0xad8
        0x00000354:    1220         .      ASRS     r0,r4,#8
        0x00000356:    f000fbac    ....    BL       LCD_WR_DATA ; 0xab2
        0x0000035a:    b2e0        ..      UXTB     r0,r4
        0x0000035c:    f000fba9    ....    BL       LCD_WR_DATA ; 0xab2
        0x00000360:    2000        .       MOVS     r0,#0
        0x00000362:    2105        .!      MOVS     r1,#5
        0x00000364:    0709        ..      LSLS     r1,r1,#28
        0x00000366:    6048        H`      STR      r0,[r1,#4]
        0x00000368:    6008        .`      STR      r0,[r1,#0]
        0x0000036a:    4907        .I      LDR      r1,[pc,#28] ; [0x388] = 0x2000000c
        0x0000036c:    8908        ..      LDRH     r0,[r1,#8]
        0x0000036e:    f000fbf3    ....    BL       MakeData ; 0xb58
        0x00000372:    2000        .       MOVS     r0,#0
        0x00000374:    2105        .!      MOVS     r1,#5
        0x00000376:    0709        ..      LSLS     r1,r1,#28
        0x00000378:    6088        .`      STR      r0,[r1,#8]
        0x0000037a:    2001        .       MOVS     r0,#1
        0x0000037c:    6088        .`      STR      r0,[r1,#8]
        0x0000037e:    6008        .`      STR      r0,[r1,#0]
        0x00000380:    4628        (F      MOV      r0,r5
        0x00000382:    f000fb96    ....    BL       LCD_WR_DATA ; 0xab2
        0x00000386:    bd30        0.      POP      {r4,r5,pc}
    $d
        0x00000388:    2000000c    ...     DCD    536870924
    $t
    i.LCD_Init
    LCD_Init
        0x0000038c:    b500        ..      PUSH     {lr}
        0x0000038e:    2001        .       MOVS     r0,#1
        0x00000390:    2105        .!      MOVS     r1,#5
        0x00000392:    0709        ..      LSLS     r1,r1,#28
        0x00000394:    6108        .a      STR      r0,[r1,#0x10]
        0x00000396:    489f        .H      LDR      r0,[pc,#636] ; [0x614] = 0x2625a0
        0x00000398:    f000fea0    ....    BL       delay ; 0x10dc
        0x0000039c:    2000        .       MOVS     r0,#0
        0x0000039e:    2105        .!      MOVS     r1,#5
        0x000003a0:    0709        ..      LSLS     r1,r1,#28
        0x000003a2:    6108        .a      STR      r0,[r1,#0x10]
        0x000003a4:    489b        .H      LDR      r0,[pc,#620] ; [0x614] = 0x2625a0
        0x000003a6:    f000fe99    ....    BL       delay ; 0x10dc
        0x000003aa:    2001        .       MOVS     r0,#1
        0x000003ac:    2105        .!      MOVS     r1,#5
        0x000003ae:    0709        ..      LSLS     r1,r1,#28
        0x000003b0:    6108        .a      STR      r0,[r1,#0x10]
        0x000003b2:    4898        .H      LDR      r0,[pc,#608] ; [0x614] = 0x2625a0
        0x000003b4:    f000fe92    ....    BL       delay ; 0x10dc
        0x000003b8:    2001        .       MOVS     r0,#1
        0x000003ba:    2105        .!      MOVS     r1,#5
        0x000003bc:    0709        ..      LSLS     r1,r1,#28
        0x000003be:    60c8        .`      STR      r0,[r1,#0xc]
        0x000003c0:    4895        .H      LDR      r0,[pc,#596] ; [0x618] = 0x9341
        0x000003c2:    4996        .I      LDR      r1,[pc,#600] ; [0x61c] = 0x2000000c
        0x000003c4:    8088        ..      STRH     r0,[r1,#4]
        0x000003c6:    4608        .F      MOV      r0,r1
        0x000003c8:    8880        ..      LDRH     r0,[r0,#4]
        0x000003ca:    4993        .I      LDR      r1,[pc,#588] ; [0x618] = 0x9341
        0x000003cc:    4288        .B      CMP      r0,r1
        0x000003ce:    d17c        |.      BNE      0x4ca ; LCD_Init + 318
        0x000003d0:    20cf        .       MOVS     r0,#0xcf
        0x000003d2:    f000fb81    ....    BL       LCD_WR_REG ; 0xad8
        0x000003d6:    2000        .       MOVS     r0,#0
        0x000003d8:    f000fb6b    ..k.    BL       LCD_WR_DATA ; 0xab2
        0x000003dc:    20c1        .       MOVS     r0,#0xc1
        0x000003de:    f000fb68    ..h.    BL       LCD_WR_DATA ; 0xab2
        0x000003e2:    2030        0       MOVS     r0,#0x30
        0x000003e4:    f000fb65    ..e.    BL       LCD_WR_DATA ; 0xab2
        0x000003e8:    20ed        .       MOVS     r0,#0xed
        0x000003ea:    f000fb75    ..u.    BL       LCD_WR_REG ; 0xad8
        0x000003ee:    2064        d       MOVS     r0,#0x64
        0x000003f0:    f000fb5f    .._.    BL       LCD_WR_DATA ; 0xab2
        0x000003f4:    2003        .       MOVS     r0,#3
        0x000003f6:    f000fb5c    ..\.    BL       LCD_WR_DATA ; 0xab2
        0x000003fa:    2012        .       MOVS     r0,#0x12
        0x000003fc:    f000fb59    ..Y.    BL       LCD_WR_DATA ; 0xab2
        0x00000400:    2081        .       MOVS     r0,#0x81
        0x00000402:    f000fb56    ..V.    BL       LCD_WR_DATA ; 0xab2
        0x00000406:    20e8        .       MOVS     r0,#0xe8
        0x00000408:    f000fb66    ..f.    BL       LCD_WR_REG ; 0xad8
        0x0000040c:    2085        .       MOVS     r0,#0x85
        0x0000040e:    f000fb50    ..P.    BL       LCD_WR_DATA ; 0xab2
        0x00000412:    2010        .       MOVS     r0,#0x10
        0x00000414:    f000fb4d    ..M.    BL       LCD_WR_DATA ; 0xab2
        0x00000418:    207a        z       MOVS     r0,#0x7a
        0x0000041a:    f000fb4a    ..J.    BL       LCD_WR_DATA ; 0xab2
        0x0000041e:    20cb        .       MOVS     r0,#0xcb
        0x00000420:    f000fb5a    ..Z.    BL       LCD_WR_REG ; 0xad8
        0x00000424:    2039        9       MOVS     r0,#0x39
        0x00000426:    f000fb44    ..D.    BL       LCD_WR_DATA ; 0xab2
        0x0000042a:    202c        ,       MOVS     r0,#0x2c
        0x0000042c:    f000fb41    ..A.    BL       LCD_WR_DATA ; 0xab2
        0x00000430:    2000        .       MOVS     r0,#0
        0x00000432:    f000fb3e    ..>.    BL       LCD_WR_DATA ; 0xab2
        0x00000436:    2034        4       MOVS     r0,#0x34
        0x00000438:    f000fb3b    ..;.    BL       LCD_WR_DATA ; 0xab2
        0x0000043c:    2002        .       MOVS     r0,#2
        0x0000043e:    f000fb38    ..8.    BL       LCD_WR_DATA ; 0xab2
        0x00000442:    20f7        .       MOVS     r0,#0xf7
        0x00000444:    f000fb48    ..H.    BL       LCD_WR_REG ; 0xad8
        0x00000448:    2020                MOVS     r0,#0x20
        0x0000044a:    f000fb32    ..2.    BL       LCD_WR_DATA ; 0xab2
        0x0000044e:    20ea        .       MOVS     r0,#0xea
        0x00000450:    f000fb42    ..B.    BL       LCD_WR_REG ; 0xad8
        0x00000454:    2000        .       MOVS     r0,#0
        0x00000456:    f000fb2c    ..,.    BL       LCD_WR_DATA ; 0xab2
        0x0000045a:    2000        .       MOVS     r0,#0
        0x0000045c:    f000fb29    ..).    BL       LCD_WR_DATA ; 0xab2
        0x00000460:    20c0        .       MOVS     r0,#0xc0
        0x00000462:    f000fb39    ..9.    BL       LCD_WR_REG ; 0xad8
        0x00000466:    201b        .       MOVS     r0,#0x1b
        0x00000468:    f000fb23    ..#.    BL       LCD_WR_DATA ; 0xab2
        0x0000046c:    20c1        .       MOVS     r0,#0xc1
        0x0000046e:    f000fb33    ..3.    BL       LCD_WR_REG ; 0xad8
        0x00000472:    2001        .       MOVS     r0,#1
        0x00000474:    f000fb1d    ....    BL       LCD_WR_DATA ; 0xab2
        0x00000478:    20c5        .       MOVS     r0,#0xc5
        0x0000047a:    f000fb2d    ..-.    BL       LCD_WR_REG ; 0xad8
        0x0000047e:    2030        0       MOVS     r0,#0x30
        0x00000480:    f000fb17    ....    BL       LCD_WR_DATA ; 0xab2
        0x00000484:    2030        0       MOVS     r0,#0x30
        0x00000486:    f000fb14    ....    BL       LCD_WR_DATA ; 0xab2
        0x0000048a:    20c7        .       MOVS     r0,#0xc7
        0x0000048c:    f000fb24    ..$.    BL       LCD_WR_REG ; 0xad8
        0x00000490:    20b7        .       MOVS     r0,#0xb7
        0x00000492:    f000fb0e    ....    BL       LCD_WR_DATA ; 0xab2
        0x00000496:    2036        6       MOVS     r0,#0x36
        0x00000498:    f000fb1e    ....    BL       LCD_WR_REG ; 0xad8
        0x0000049c:    2048        H       MOVS     r0,#0x48
        0x0000049e:    f000fb08    ....    BL       LCD_WR_DATA ; 0xab2
        0x000004a2:    203a        :       MOVS     r0,#0x3a
        0x000004a4:    f000fb18    ....    BL       LCD_WR_REG ; 0xad8
        0x000004a8:    2055        U       MOVS     r0,#0x55
        0x000004aa:    f000fb02    ....    BL       LCD_WR_DATA ; 0xab2
        0x000004ae:    20b1        .       MOVS     r0,#0xb1
        0x000004b0:    f000fb12    ....    BL       LCD_WR_REG ; 0xad8
        0x000004b4:    2000        .       MOVS     r0,#0
        0x000004b6:    f000fafc    ....    BL       LCD_WR_DATA ; 0xab2
        0x000004ba:    201a        .       MOVS     r0,#0x1a
        0x000004bc:    f000faf9    ....    BL       LCD_WR_DATA ; 0xab2
        0x000004c0:    20b6        .       MOVS     r0,#0xb6
        0x000004c2:    f000fb09    ....    BL       LCD_WR_REG ; 0xad8
        0x000004c6:    200a        .       MOVS     r0,#0xa
        0x000004c8:    e000        ..      B        0x4cc ; LCD_Init + 320
        0x000004ca:    e097        ..      B        0x5fc ; LCD_Init + 624
        0x000004cc:    f000faf1    ....    BL       LCD_WR_DATA ; 0xab2
        0x000004d0:    20a2        .       MOVS     r0,#0xa2
        0x000004d2:    f000faee    ....    BL       LCD_WR_DATA ; 0xab2
        0x000004d6:    20f2        .       MOVS     r0,#0xf2
        0x000004d8:    f000fafe    ....    BL       LCD_WR_REG ; 0xad8
        0x000004dc:    2000        .       MOVS     r0,#0
        0x000004de:    f000fae8    ....    BL       LCD_WR_DATA ; 0xab2
        0x000004e2:    2026        &       MOVS     r0,#0x26
        0x000004e4:    f000faf8    ....    BL       LCD_WR_REG ; 0xad8
        0x000004e8:    2001        .       MOVS     r0,#1
        0x000004ea:    f000fae2    ....    BL       LCD_WR_DATA ; 0xab2
        0x000004ee:    20e0        .       MOVS     r0,#0xe0
        0x000004f0:    f000faf2    ....    BL       LCD_WR_REG ; 0xad8
        0x000004f4:    200f        .       MOVS     r0,#0xf
        0x000004f6:    f000fadc    ....    BL       LCD_WR_DATA ; 0xab2
        0x000004fa:    202a        *       MOVS     r0,#0x2a
        0x000004fc:    f000fad9    ....    BL       LCD_WR_DATA ; 0xab2
        0x00000500:    2028        (       MOVS     r0,#0x28
        0x00000502:    f000fad6    ....    BL       LCD_WR_DATA ; 0xab2
        0x00000506:    2008        .       MOVS     r0,#8
        0x00000508:    f000fad3    ....    BL       LCD_WR_DATA ; 0xab2
        0x0000050c:    200e        .       MOVS     r0,#0xe
        0x0000050e:    f000fad0    ....    BL       LCD_WR_DATA ; 0xab2
        0x00000512:    2008        .       MOVS     r0,#8
        0x00000514:    f000facd    ....    BL       LCD_WR_DATA ; 0xab2
        0x00000518:    2054        T       MOVS     r0,#0x54
        0x0000051a:    f000faca    ....    BL       LCD_WR_DATA ; 0xab2
        0x0000051e:    20a9        .       MOVS     r0,#0xa9
        0x00000520:    f000fac7    ....    BL       LCD_WR_DATA ; 0xab2
        0x00000524:    2043        C       MOVS     r0,#0x43
        0x00000526:    f000fac4    ....    BL       LCD_WR_DATA ; 0xab2
        0x0000052a:    200a        .       MOVS     r0,#0xa
        0x0000052c:    f000fac1    ....    BL       LCD_WR_DATA ; 0xab2
        0x00000530:    200f        .       MOVS     r0,#0xf
        0x00000532:    f000fabe    ....    BL       LCD_WR_DATA ; 0xab2
        0x00000536:    2000        .       MOVS     r0,#0
        0x00000538:    f000fabb    ....    BL       LCD_WR_DATA ; 0xab2
        0x0000053c:    2000        .       MOVS     r0,#0
        0x0000053e:    f000fab8    ....    BL       LCD_WR_DATA ; 0xab2
        0x00000542:    2000        .       MOVS     r0,#0
        0x00000544:    f000fab5    ....    BL       LCD_WR_DATA ; 0xab2
        0x00000548:    2000        .       MOVS     r0,#0
        0x0000054a:    f000fab2    ....    BL       LCD_WR_DATA ; 0xab2
        0x0000054e:    20e1        .       MOVS     r0,#0xe1
        0x00000550:    f000fac2    ....    BL       LCD_WR_REG ; 0xad8
        0x00000554:    2000        .       MOVS     r0,#0
        0x00000556:    f000faac    ....    BL       LCD_WR_DATA ; 0xab2
        0x0000055a:    2015        .       MOVS     r0,#0x15
        0x0000055c:    f000faa9    ....    BL       LCD_WR_DATA ; 0xab2
        0x00000560:    2017        .       MOVS     r0,#0x17
        0x00000562:    f000faa6    ....    BL       LCD_WR_DATA ; 0xab2
        0x00000566:    2007        .       MOVS     r0,#7
        0x00000568:    f000faa3    ....    BL       LCD_WR_DATA ; 0xab2
        0x0000056c:    2011        .       MOVS     r0,#0x11
        0x0000056e:    f000faa0    ....    BL       LCD_WR_DATA ; 0xab2
        0x00000572:    2006        .       MOVS     r0,#6
        0x00000574:    f000fa9d    ....    BL       LCD_WR_DATA ; 0xab2
        0x00000578:    202b        +       MOVS     r0,#0x2b
        0x0000057a:    f000fa9a    ....    BL       LCD_WR_DATA ; 0xab2
        0x0000057e:    2056        V       MOVS     r0,#0x56
        0x00000580:    f000fa97    ....    BL       LCD_WR_DATA ; 0xab2
        0x00000584:    203c        <       MOVS     r0,#0x3c
        0x00000586:    f000fa94    ....    BL       LCD_WR_DATA ; 0xab2
        0x0000058a:    2005        .       MOVS     r0,#5
        0x0000058c:    f000fa91    ....    BL       LCD_WR_DATA ; 0xab2
        0x00000590:    2010        .       MOVS     r0,#0x10
        0x00000592:    f000fa8e    ....    BL       LCD_WR_DATA ; 0xab2
        0x00000596:    200f        .       MOVS     r0,#0xf
        0x00000598:    f000fa8b    ....    BL       LCD_WR_DATA ; 0xab2
        0x0000059c:    203f        ?       MOVS     r0,#0x3f
        0x0000059e:    f000fa88    ....    BL       LCD_WR_DATA ; 0xab2
        0x000005a2:    203f        ?       MOVS     r0,#0x3f
        0x000005a4:    f000fa85    ....    BL       LCD_WR_DATA ; 0xab2
        0x000005a8:    200f        .       MOVS     r0,#0xf
        0x000005aa:    f000fa82    ....    BL       LCD_WR_DATA ; 0xab2
        0x000005ae:    202b        +       MOVS     r0,#0x2b
        0x000005b0:    f000fa92    ....    BL       LCD_WR_REG ; 0xad8
        0x000005b4:    2000        .       MOVS     r0,#0
        0x000005b6:    f000fa7c    ..|.    BL       LCD_WR_DATA ; 0xab2
        0x000005ba:    2000        .       MOVS     r0,#0
        0x000005bc:    f000fa79    ..y.    BL       LCD_WR_DATA ; 0xab2
        0x000005c0:    2001        .       MOVS     r0,#1
        0x000005c2:    f000fa76    ..v.    BL       LCD_WR_DATA ; 0xab2
        0x000005c6:    203f        ?       MOVS     r0,#0x3f
        0x000005c8:    f000fa73    ..s.    BL       LCD_WR_DATA ; 0xab2
        0x000005cc:    202a        *       MOVS     r0,#0x2a
        0x000005ce:    f000fa83    ....    BL       LCD_WR_REG ; 0xad8
        0x000005d2:    2000        .       MOVS     r0,#0
        0x000005d4:    f000fa6d    ..m.    BL       LCD_WR_DATA ; 0xab2
        0x000005d8:    2000        .       MOVS     r0,#0
        0x000005da:    f000fa6a    ..j.    BL       LCD_WR_DATA ; 0xab2
        0x000005de:    2000        .       MOVS     r0,#0
        0x000005e0:    f000fa67    ..g.    BL       LCD_WR_DATA ; 0xab2
        0x000005e4:    20ef        .       MOVS     r0,#0xef
        0x000005e6:    f000fa64    ..d.    BL       LCD_WR_DATA ; 0xab2
        0x000005ea:    2011        .       MOVS     r0,#0x11
        0x000005ec:    f000fa74    ..t.    BL       LCD_WR_REG ; 0xad8
        0x000005f0:    480b        .H      LDR      r0,[pc,#44] ; [0x620] = 0x5b8d80
        0x000005f2:    f000fd73    ..s.    BL       delay ; 0x10dc
        0x000005f6:    2029        )       MOVS     r0,#0x29
        0x000005f8:    f000fa6e    ..n.    BL       LCD_WR_REG ; 0xad8
        0x000005fc:    2001        .       MOVS     r0,#1
        0x000005fe:    f7fffe5b    ..[.    BL       LCD_Display_Dir ; 0x2b8
        0x00000602:    2001        .       MOVS     r0,#1
        0x00000604:    2105        .!      MOVS     r1,#5
        0x00000606:    0709        ..      LSLS     r1,r1,#28
        0x00000608:    6148        Ha      STR      r0,[r1,#0x14]
        0x0000060a:    2000        .       MOVS     r0,#0
        0x0000060c:    f7fffe1e    ....    BL       LCD_Clear ; 0x24c
        0x00000610:    bd00        ..      POP      {pc}
    $d
        0x00000612:    0000        ..      DCW    0
        0x00000614:    002625a0    .%&.    DCD    2500000
        0x00000618:    00009341    A...    DCD    37697
        0x0000061c:    2000000c    ...     DCD    536870924
        0x00000620:    005b8d80    ..[.    DCD    6000000
    $t
    i.LCD_Scan_Dir
    LCD_Scan_Dir
        0x00000624:    b5f0        ..      PUSH     {r4-r7,lr}
        0x00000626:    4605        .F      MOV      r5,r0
        0x00000628:    2400        .$      MOVS     r4,#0
        0x0000062a:    2700        .'      MOVS     r7,#0
        0x0000062c:    48b1        .H      LDR      r0,[pc,#708] ; [0x8f4] = 0x2000000c
        0x0000062e:    7980        .y      LDRB     r0,[r0,#6]
        0x00000630:    2801        .(      CMP      r0,#1
        0x00000632:    d109        ..      BNE      0x648 ; LCD_Scan_Dir + 36
        0x00000634:    48af        .H      LDR      r0,[pc,#700] ; [0x8f4] = 0x2000000c
        0x00000636:    8880        ..      LDRH     r0,[r0,#4]
        0x00000638:    49af        .I      LDR      r1,[pc,#700] ; [0x8f8] = 0x6804
        0x0000063a:    4288        .B      CMP      r0,r1
        0x0000063c:    d004        ..      BEQ      0x648 ; LCD_Scan_Dir + 36
        0x0000063e:    48ad        .H      LDR      r0,[pc,#692] ; [0x8f4] = 0x2000000c
        0x00000640:    8880        ..      LDRH     r0,[r0,#4]
        0x00000642:    49ae        .I      LDR      r1,[pc,#696] ; [0x8fc] = 0x1963
        0x00000644:    4288        .B      CMP      r0,r1
        0x00000646:    d108        ..      BNE      0x65a ; LCD_Scan_Dir + 54
        0x00000648:    48aa        .H      LDR      r0,[pc,#680] ; [0x8f4] = 0x2000000c
        0x0000064a:    7980        .y      LDRB     r0,[r0,#6]
        0x0000064c:    2800        .(      CMP      r0,#0
        0x0000064e:    d11d        ..      BNE      0x68c ; LCD_Scan_Dir + 104
        0x00000650:    48a8        .H      LDR      r0,[pc,#672] ; [0x8f4] = 0x2000000c
        0x00000652:    8880        ..      LDRH     r0,[r0,#4]
        0x00000654:    49a9        .I      LDR      r1,[pc,#676] ; [0x8fc] = 0x1963
        0x00000656:    4288        .B      CMP      r0,r1
        0x00000658:    d118        ..      BNE      0x68c ; LCD_Scan_Dir + 104
        0x0000065a:    002b        +.      MOVS     r3,r5
        0x0000065c:    f000fbb2    ....    BL       __ARM_common_switch8 ; 0xdc4
    $d
        0x00000660:    09070508    ....    DCD    151454984
        0x00000664:    110f0d0b    ....    DCD    286199051
        0x00000668:    1513        ..      DCW    5395
    $t
        0x0000066a:    2506        .%      MOVS     r5,#6
        0x0000066c:    e00d        ..      B        0x68a ; LCD_Scan_Dir + 102
        0x0000066e:    2507        .%      MOVS     r5,#7
        0x00000670:    e00b        ..      B        0x68a ; LCD_Scan_Dir + 102
        0x00000672:    2504        .%      MOVS     r5,#4
        0x00000674:    e009        ..      B        0x68a ; LCD_Scan_Dir + 102
        0x00000676:    2505        .%      MOVS     r5,#5
        0x00000678:    e007        ..      B        0x68a ; LCD_Scan_Dir + 102
        0x0000067a:    2501        .%      MOVS     r5,#1
        0x0000067c:    e005        ..      B        0x68a ; LCD_Scan_Dir + 102
        0x0000067e:    2500        .%      MOVS     r5,#0
        0x00000680:    e003        ..      B        0x68a ; LCD_Scan_Dir + 102
        0x00000682:    2503        .%      MOVS     r5,#3
        0x00000684:    e001        ..      B        0x68a ; LCD_Scan_Dir + 102
        0x00000686:    2502        .%      MOVS     r5,#2
        0x00000688:    bf00        ..      NOP      
        0x0000068a:    bf00        ..      NOP      
        0x0000068c:    4899        .H      LDR      r0,[pc,#612] ; [0x8f4] = 0x2000000c
        0x0000068e:    8880        ..      LDRH     r0,[r0,#4]
        0x00000690:    499b        .I      LDR      r1,[pc,#620] ; [0x900] = 0x9341
        0x00000692:    4288        .B      CMP      r0,r1
        0x00000694:    d013        ..      BEQ      0x6be ; LCD_Scan_Dir + 154
        0x00000696:    4897        .H      LDR      r0,[pc,#604] ; [0x8f4] = 0x2000000c
        0x00000698:    8880        ..      LDRH     r0,[r0,#4]
        0x0000069a:    4997        .I      LDR      r1,[pc,#604] ; [0x8f8] = 0x6804
        0x0000069c:    4288        .B      CMP      r0,r1
        0x0000069e:    d00e        ..      BEQ      0x6be ; LCD_Scan_Dir + 154
        0x000006a0:    4894        .H      LDR      r0,[pc,#592] ; [0x8f4] = 0x2000000c
        0x000006a2:    8880        ..      LDRH     r0,[r0,#4]
        0x000006a4:    4997        .I      LDR      r1,[pc,#604] ; [0x904] = 0x5310
        0x000006a6:    4288        .B      CMP      r0,r1
        0x000006a8:    d009        ..      BEQ      0x6be ; LCD_Scan_Dir + 154
        0x000006aa:    4892        .H      LDR      r0,[pc,#584] ; [0x8f4] = 0x2000000c
        0x000006ac:    8880        ..      LDRH     r0,[r0,#4]
        0x000006ae:    4996        .I      LDR      r1,[pc,#600] ; [0x908] = 0x5510
        0x000006b0:    4288        .B      CMP      r0,r1
        0x000006b2:    d004        ..      BEQ      0x6be ; LCD_Scan_Dir + 154
        0x000006b4:    488f        .H      LDR      r0,[pc,#572] ; [0x8f4] = 0x2000000c
        0x000006b6:    8880        ..      LDRH     r0,[r0,#4]
        0x000006b8:    4990        .I      LDR      r1,[pc,#576] ; [0x8fc] = 0x1963
        0x000006ba:    4288        .B      CMP      r0,r1
        0x000006bc:    d17e        ~.      BNE      0x7bc ; LCD_Scan_Dir + 408
        0x000006be:    002b        +.      MOVS     r3,r5
        0x000006c0:    f000fb80    ....    BL       __ARM_common_switch8 ; 0xdc4
    $d
        0x000006c4:    0a070508    ....    DCD    168232200
        0x000006c8:    1613100d    ....    DCD    370348045
        0x000006cc:    1c19        ..      DCW    7193
    $t
        0x000006ce:    bf00        ..      NOP      
        0x000006d0:    e014        ..      B        0x6fc ; LCD_Scan_Dir + 216
        0x000006d2:    2080        .       MOVS     r0,#0x80
        0x000006d4:    4304        .C      ORRS     r4,r4,r0
        0x000006d6:    e011        ..      B        0x6fc ; LCD_Scan_Dir + 216
        0x000006d8:    2040        @       MOVS     r0,#0x40
        0x000006da:    4304        .C      ORRS     r4,r4,r0
        0x000006dc:    e00e        ..      B        0x6fc ; LCD_Scan_Dir + 216
        0x000006de:    20c0        .       MOVS     r0,#0xc0
        0x000006e0:    4304        .C      ORRS     r4,r4,r0
        0x000006e2:    e00b        ..      B        0x6fc ; LCD_Scan_Dir + 216
        0x000006e4:    2020                MOVS     r0,#0x20
        0x000006e6:    4304        .C      ORRS     r4,r4,r0
        0x000006e8:    e008        ..      B        0x6fc ; LCD_Scan_Dir + 216
        0x000006ea:    2060        `       MOVS     r0,#0x60
        0x000006ec:    4304        .C      ORRS     r4,r4,r0
        0x000006ee:    e005        ..      B        0x6fc ; LCD_Scan_Dir + 216
        0x000006f0:    20a0        .       MOVS     r0,#0xa0
        0x000006f2:    4304        .C      ORRS     r4,r4,r0
        0x000006f4:    e002        ..      B        0x6fc ; LCD_Scan_Dir + 216
        0x000006f6:    20e0        .       MOVS     r0,#0xe0
        0x000006f8:    4304        .C      ORRS     r4,r4,r0
        0x000006fa:    bf00        ..      NOP      
        0x000006fc:    bf00        ..      NOP      
        0x000006fe:    487d        }H      LDR      r0,[pc,#500] ; [0x8f4] = 0x2000000c
        0x00000700:    8880        ..      LDRH     r0,[r0,#4]
        0x00000702:    4981        .I      LDR      r1,[pc,#516] ; [0x908] = 0x5510
        0x00000704:    4288        .B      CMP      r0,r1
        0x00000706:    d102        ..      BNE      0x70e ; LCD_Scan_Dir + 234
        0x00000708:    271b        .'      MOVS     r7,#0x1b
        0x0000070a:    027f        ..      LSLS     r7,r7,#9
        0x0000070c:    e000        ..      B        0x710 ; LCD_Scan_Dir + 236
        0x0000070e:    2736        6'      MOVS     r7,#0x36
        0x00000710:    4878        xH      LDR      r0,[pc,#480] ; [0x8f4] = 0x2000000c
        0x00000712:    8880        ..      LDRH     r0,[r0,#4]
        0x00000714:    497b        {I      LDR      r1,[pc,#492] ; [0x904] = 0x5310
        0x00000716:    4288        .B      CMP      r0,r1
        0x00000718:    d00b        ..      BEQ      0x732 ; LCD_Scan_Dir + 270
        0x0000071a:    4876        vH      LDR      r0,[pc,#472] ; [0x8f4] = 0x2000000c
        0x0000071c:    8880        ..      LDRH     r0,[r0,#4]
        0x0000071e:    497a        zI      LDR      r1,[pc,#488] ; [0x908] = 0x5510
        0x00000720:    4288        .B      CMP      r0,r1
        0x00000722:    d006        ..      BEQ      0x732 ; LCD_Scan_Dir + 270
        0x00000724:    4873        sH      LDR      r0,[pc,#460] ; [0x8f4] = 0x2000000c
        0x00000726:    8880        ..      LDRH     r0,[r0,#4]
        0x00000728:    4974        tI      LDR      r1,[pc,#464] ; [0x8fc] = 0x1963
        0x0000072a:    4288        .B      CMP      r0,r1
        0x0000072c:    d001        ..      BEQ      0x732 ; LCD_Scan_Dir + 270
        0x0000072e:    2008        .       MOVS     r0,#8
        0x00000730:    4304        .C      ORRS     r4,r4,r0
        0x00000732:    4870        pH      LDR      r0,[pc,#448] ; [0x8f4] = 0x2000000c
        0x00000734:    8880        ..      LDRH     r0,[r0,#4]
        0x00000736:    4970        pI      LDR      r1,[pc,#448] ; [0x8f8] = 0x6804
        0x00000738:    4288        .B      CMP      r0,r1
        0x0000073a:    d101        ..      BNE      0x740 ; LCD_Scan_Dir + 284
        0x0000073c:    2002        .       MOVS     r0,#2
        0x0000073e:    4304        .C      ORRS     r4,r4,r0
        0x00000740:    4621        !F      MOV      r1,r4
        0x00000742:    4638        8F      MOV      r0,r7
        0x00000744:    f000f9e2    ....    BL       LCD_WriteReg ; 0xb0c
        0x00000748:    486a        jH      LDR      r0,[pc,#424] ; [0x8f4] = 0x2000000c
        0x0000074a:    8880        ..      LDRH     r0,[r0,#4]
        0x0000074c:    496b        kI      LDR      r1,[pc,#428] ; [0x8fc] = 0x1963
        0x0000074e:    4288        .B      CMP      r0,r1
        0x00000750:    d01e        ..      BEQ      0x790 ; LCD_Scan_Dir + 364
        0x00000752:    2020                MOVS     r0,#0x20
        0x00000754:    4020         @      ANDS     r0,r0,r4
        0x00000756:    2800        .(      CMP      r0,#0
        0x00000758:    d00d        ..      BEQ      0x776 ; LCD_Scan_Dir + 338
        0x0000075a:    4866        fH      LDR      r0,[pc,#408] ; [0x8f4] = 0x2000000c
        0x0000075c:    8800        ..      LDRH     r0,[r0,#0]
        0x0000075e:    4965        eI      LDR      r1,[pc,#404] ; [0x8f4] = 0x2000000c
        0x00000760:    8849        I.      LDRH     r1,[r1,#2]
        0x00000762:    4288        .B      CMP      r0,r1
        0x00000764:    da14        ..      BGE      0x790 ; LCD_Scan_Dir + 364
        0x00000766:    4863        cH      LDR      r0,[pc,#396] ; [0x8f4] = 0x2000000c
        0x00000768:    8806        ..      LDRH     r6,[r0,#0]
        0x0000076a:    8840        @.      LDRH     r0,[r0,#2]
        0x0000076c:    4961        aI      LDR      r1,[pc,#388] ; [0x8f4] = 0x2000000c
        0x0000076e:    8008        ..      STRH     r0,[r1,#0]
        0x00000770:    4608        .F      MOV      r0,r1
        0x00000772:    8046        F.      STRH     r6,[r0,#2]
        0x00000774:    e00c        ..      B        0x790 ; LCD_Scan_Dir + 364
        0x00000776:    485f        _H      LDR      r0,[pc,#380] ; [0x8f4] = 0x2000000c
        0x00000778:    8800        ..      LDRH     r0,[r0,#0]
        0x0000077a:    495e        ^I      LDR      r1,[pc,#376] ; [0x8f4] = 0x2000000c
        0x0000077c:    8849        I.      LDRH     r1,[r1,#2]
        0x0000077e:    4288        .B      CMP      r0,r1
        0x00000780:    dd06        ..      BLE      0x790 ; LCD_Scan_Dir + 364
        0x00000782:    485c        \H      LDR      r0,[pc,#368] ; [0x8f4] = 0x2000000c
        0x00000784:    8806        ..      LDRH     r6,[r0,#0]
        0x00000786:    8840        @.      LDRH     r0,[r0,#2]
        0x00000788:    495a        ZI      LDR      r1,[pc,#360] ; [0x8f4] = 0x2000000c
        0x0000078a:    8008        ..      STRH     r0,[r1,#0]
        0x0000078c:    4608        .F      MOV      r0,r1
        0x0000078e:    8046        F.      STRH     r6,[r0,#2]
        0x00000790:    4858        XH      LDR      r0,[pc,#352] ; [0x8f4] = 0x2000000c
        0x00000792:    8880        ..      LDRH     r0,[r0,#4]
        0x00000794:    495c        \I      LDR      r1,[pc,#368] ; [0x908] = 0x5510
        0x00000796:    4288        .B      CMP      r0,r1
        0x00000798:    d154        T.      BNE      0x844 ; LCD_Scan_Dir + 544
        0x0000079a:    4956        VI      LDR      r1,[pc,#344] ; [0x8f4] = 0x2000000c
        0x0000079c:    8948        H.      LDRH     r0,[r1,#0xa]
        0x0000079e:    f000f99b    ....    BL       LCD_WR_REG ; 0xad8
        0x000007a2:    2000        .       MOVS     r0,#0
        0x000007a4:    f000f985    ....    BL       LCD_WR_DATA ; 0xab2
        0x000007a8:    4952        RI      LDR      r1,[pc,#328] ; [0x8f4] = 0x2000000c
        0x000007aa:    8949        I.      LDRH     r1,[r1,#0xa]
        0x000007ac:    1c49        I.      ADDS     r1,r1,#1
        0x000007ae:    b288        ..      UXTH     r0,r1
        0x000007b0:    f000f992    ....    BL       LCD_WR_REG ; 0xad8
        0x000007b4:    2000        .       MOVS     r0,#0
        0x000007b6:    f000f97c    ..|.    BL       LCD_WR_DATA ; 0xab2
        0x000007ba:    e000        ..      B        0x7be ; LCD_Scan_Dir + 410
        0x000007bc:    e071        q.      B        0x8a2 ; LCD_Scan_Dir + 638
        0x000007be:    494d        MI      LDR      r1,[pc,#308] ; [0x8f4] = 0x2000000c
        0x000007c0:    8949        I.      LDRH     r1,[r1,#0xa]
        0x000007c2:    1c89        ..      ADDS     r1,r1,#2
        0x000007c4:    b288        ..      UXTH     r0,r1
        0x000007c6:    f000f987    ....    BL       LCD_WR_REG ; 0xad8
        0x000007ca:    494a        JI      LDR      r1,[pc,#296] ; [0x8f4] = 0x2000000c
        0x000007cc:    8809        ..      LDRH     r1,[r1,#0]
        0x000007ce:    1e49        I.      SUBS     r1,r1,#1
        0x000007d0:    0209        ..      LSLS     r1,r1,#8
        0x000007d2:    0c08        ..      LSRS     r0,r1,#16
        0x000007d4:    f000f96d    ..m.    BL       LCD_WR_DATA ; 0xab2
        0x000007d8:    4946        FI      LDR      r1,[pc,#280] ; [0x8f4] = 0x2000000c
        0x000007da:    8949        I.      LDRH     r1,[r1,#0xa]
        0x000007dc:    1cc9        ..      ADDS     r1,r1,#3
        0x000007de:    b288        ..      UXTH     r0,r1
        0x000007e0:    f000f97a    ..z.    BL       LCD_WR_REG ; 0xad8
        0x000007e4:    4943        CI      LDR      r1,[pc,#268] ; [0x8f4] = 0x2000000c
        0x000007e6:    7809        .x      LDRB     r1,[r1,#0]
        0x000007e8:    1e49        I.      SUBS     r1,r1,#1
        0x000007ea:    b2c8        ..      UXTB     r0,r1
        0x000007ec:    f000f961    ..a.    BL       LCD_WR_DATA ; 0xab2
        0x000007f0:    4940        @I      LDR      r1,[pc,#256] ; [0x8f4] = 0x2000000c
        0x000007f2:    8988        ..      LDRH     r0,[r1,#0xc]
        0x000007f4:    f000f970    ..p.    BL       LCD_WR_REG ; 0xad8
        0x000007f8:    2000        .       MOVS     r0,#0
        0x000007fa:    f000f95a    ..Z.    BL       LCD_WR_DATA ; 0xab2
        0x000007fe:    493d        =I      LDR      r1,[pc,#244] ; [0x8f4] = 0x2000000c
        0x00000800:    8989        ..      LDRH     r1,[r1,#0xc]
        0x00000802:    1c49        I.      ADDS     r1,r1,#1
        0x00000804:    b288        ..      UXTH     r0,r1
        0x00000806:    f000f967    ..g.    BL       LCD_WR_REG ; 0xad8
        0x0000080a:    2000        .       MOVS     r0,#0
        0x0000080c:    f000f951    ..Q.    BL       LCD_WR_DATA ; 0xab2
        0x00000810:    4938        8I      LDR      r1,[pc,#224] ; [0x8f4] = 0x2000000c
        0x00000812:    8989        ..      LDRH     r1,[r1,#0xc]
        0x00000814:    1c89        ..      ADDS     r1,r1,#2
        0x00000816:    b288        ..      UXTH     r0,r1
        0x00000818:    f000f95e    ..^.    BL       LCD_WR_REG ; 0xad8
        0x0000081c:    4935        5I      LDR      r1,[pc,#212] ; [0x8f4] = 0x2000000c
        0x0000081e:    8849        I.      LDRH     r1,[r1,#2]
        0x00000820:    1e49        I.      SUBS     r1,r1,#1
        0x00000822:    0209        ..      LSLS     r1,r1,#8
        0x00000824:    0c08        ..      LSRS     r0,r1,#16
        0x00000826:    f000f944    ..D.    BL       LCD_WR_DATA ; 0xab2
        0x0000082a:    4932        2I      LDR      r1,[pc,#200] ; [0x8f4] = 0x2000000c
        0x0000082c:    8989        ..      LDRH     r1,[r1,#0xc]
        0x0000082e:    1cc9        ..      ADDS     r1,r1,#3
        0x00000830:    b288        ..      UXTH     r0,r1
        0x00000832:    f000f951    ..Q.    BL       LCD_WR_REG ; 0xad8
        0x00000836:    492f        /I      LDR      r1,[pc,#188] ; [0x8f4] = 0x2000000c
        0x00000838:    7889        .x      LDRB     r1,[r1,#2]
        0x0000083a:    1e49        I.      SUBS     r1,r1,#1
        0x0000083c:    b2c8        ..      UXTB     r0,r1
        0x0000083e:    f000f938    ..8.    BL       LCD_WR_DATA ; 0xab2
        0x00000842:    e056        V.      B        0x8f2 ; LCD_Scan_Dir + 718
        0x00000844:    492b        +I      LDR      r1,[pc,#172] ; [0x8f4] = 0x2000000c
        0x00000846:    8948        H.      LDRH     r0,[r1,#0xa]
        0x00000848:    f000f946    ..F.    BL       LCD_WR_REG ; 0xad8
        0x0000084c:    2000        .       MOVS     r0,#0
        0x0000084e:    f000f930    ..0.    BL       LCD_WR_DATA ; 0xab2
        0x00000852:    2000        .       MOVS     r0,#0
        0x00000854:    f000f92d    ..-.    BL       LCD_WR_DATA ; 0xab2
        0x00000858:    4926        &I      LDR      r1,[pc,#152] ; [0x8f4] = 0x2000000c
        0x0000085a:    8809        ..      LDRH     r1,[r1,#0]
        0x0000085c:    1e49        I.      SUBS     r1,r1,#1
        0x0000085e:    0209        ..      LSLS     r1,r1,#8
        0x00000860:    0c08        ..      LSRS     r0,r1,#16
        0x00000862:    f000f926    ..&.    BL       LCD_WR_DATA ; 0xab2
        0x00000866:    4923        #I      LDR      r1,[pc,#140] ; [0x8f4] = 0x2000000c
        0x00000868:    7809        .x      LDRB     r1,[r1,#0]
        0x0000086a:    1e49        I.      SUBS     r1,r1,#1
        0x0000086c:    b2c8        ..      UXTB     r0,r1
        0x0000086e:    f000f920    .. .    BL       LCD_WR_DATA ; 0xab2
        0x00000872:    4920         I      LDR      r1,[pc,#128] ; [0x8f4] = 0x2000000c
        0x00000874:    8988        ..      LDRH     r0,[r1,#0xc]
        0x00000876:    f000f92f    ../.    BL       LCD_WR_REG ; 0xad8
        0x0000087a:    2000        .       MOVS     r0,#0
        0x0000087c:    f000f919    ....    BL       LCD_WR_DATA ; 0xab2
        0x00000880:    2000        .       MOVS     r0,#0
        0x00000882:    f000f916    ....    BL       LCD_WR_DATA ; 0xab2
        0x00000886:    491b        .I      LDR      r1,[pc,#108] ; [0x8f4] = 0x2000000c
        0x00000888:    8849        I.      LDRH     r1,[r1,#2]
        0x0000088a:    1e49        I.      SUBS     r1,r1,#1
        0x0000088c:    0209        ..      LSLS     r1,r1,#8
        0x0000088e:    0c08        ..      LSRS     r0,r1,#16
        0x00000890:    f000f90f    ....    BL       LCD_WR_DATA ; 0xab2
        0x00000894:    4917        .I      LDR      r1,[pc,#92] ; [0x8f4] = 0x2000000c
        0x00000896:    7889        .x      LDRB     r1,[r1,#2]
        0x00000898:    1e49        I.      SUBS     r1,r1,#1
        0x0000089a:    b2c8        ..      UXTB     r0,r1
        0x0000089c:    f000f909    ....    BL       LCD_WR_DATA ; 0xab2
        0x000008a0:    e027        '.      B        0x8f2 ; LCD_Scan_Dir + 718
        0x000008a2:    002b        +.      MOVS     r3,r5
        0x000008a4:    f000fa8e    ....    BL       __ARM_common_switch8 ; 0xdc4
    $d
        0x000008a8:    0b080508    ....    DCD    185074952
        0x000008ac:    1613100e    ....    DCD    370348046
        0x000008b0:    1c19        ..      DCW    7193
    $t
        0x000008b2:    2030        0       MOVS     r0,#0x30
        0x000008b4:    4304        .C      ORRS     r4,r4,r0
        0x000008b6:    e013        ..      B        0x8e0 ; LCD_Scan_Dir + 700
        0x000008b8:    2010        .       MOVS     r0,#0x10
        0x000008ba:    4304        .C      ORRS     r4,r4,r0
        0x000008bc:    e010        ..      B        0x8e0 ; LCD_Scan_Dir + 700
        0x000008be:    2020                MOVS     r0,#0x20
        0x000008c0:    4304        .C      ORRS     r4,r4,r0
        0x000008c2:    e00d        ..      B        0x8e0 ; LCD_Scan_Dir + 700
        0x000008c4:    bf00        ..      NOP      
        0x000008c6:    e00b        ..      B        0x8e0 ; LCD_Scan_Dir + 700
        0x000008c8:    2038        8       MOVS     r0,#0x38
        0x000008ca:    4304        .C      ORRS     r4,r4,r0
        0x000008cc:    e008        ..      B        0x8e0 ; LCD_Scan_Dir + 700
        0x000008ce:    2028        (       MOVS     r0,#0x28
        0x000008d0:    4304        .C      ORRS     r4,r4,r0
        0x000008d2:    e005        ..      B        0x8e0 ; LCD_Scan_Dir + 700
        0x000008d4:    2018        .       MOVS     r0,#0x18
        0x000008d6:    4304        .C      ORRS     r4,r4,r0
        0x000008d8:    e002        ..      B        0x8e0 ; LCD_Scan_Dir + 700
        0x000008da:    2008        .       MOVS     r0,#8
        0x000008dc:    4304        .C      ORRS     r4,r4,r0
        0x000008de:    bf00        ..      NOP      
        0x000008e0:    bf00        ..      NOP      
        0x000008e2:    2703        .'      MOVS     r7,#3
        0x000008e4:    2001        .       MOVS     r0,#1
        0x000008e6:    0300        ..      LSLS     r0,r0,#12
        0x000008e8:    4304        .C      ORRS     r4,r4,r0
        0x000008ea:    4621        !F      MOV      r1,r4
        0x000008ec:    4638        8F      MOV      r0,r7
        0x000008ee:    f000f90d    ....    BL       LCD_WriteReg ; 0xb0c
        0x000008f2:    bdf0        ..      POP      {r4-r7,pc}
    $d
        0x000008f4:    2000000c    ...     DCD    536870924
        0x000008f8:    00006804    .h..    DCD    26628
        0x000008fc:    00001963    c...    DCD    6499
        0x00000900:    00009341    A...    DCD    37697
        0x00000904:    00005310    .S..    DCD    21264
        0x00000908:    00005510    .U..    DCD    21776
    $t
    i.LCD_SetCursor
    LCD_SetCursor
        0x0000090c:    b510        ..      PUSH     {r4,lr}
        0x0000090e:    4603        .F      MOV      r3,r0
        0x00000910:    460c        .F      MOV      r4,r1
        0x00000912:    490a        .I      LDR      r1,[pc,#40] ; [0x93c] = 0x2000000c
        0x00000914:    8948        H.      LDRH     r0,[r1,#0xa]
        0x00000916:    f000f8df    ....    BL       LCD_WR_REG ; 0xad8
        0x0000091a:    1218        ..      ASRS     r0,r3,#8
        0x0000091c:    f000f8c9    ....    BL       LCD_WR_DATA ; 0xab2
        0x00000920:    b2d8        ..      UXTB     r0,r3
        0x00000922:    f000f8c6    ....    BL       LCD_WR_DATA ; 0xab2
        0x00000926:    4905        .I      LDR      r1,[pc,#20] ; [0x93c] = 0x2000000c
        0x00000928:    8988        ..      LDRH     r0,[r1,#0xc]
        0x0000092a:    f000f8d5    ....    BL       LCD_WR_REG ; 0xad8
        0x0000092e:    1220         .      ASRS     r0,r4,#8
        0x00000930:    f000f8bf    ....    BL       LCD_WR_DATA ; 0xab2
        0x00000934:    b2e0        ..      UXTB     r0,r4
        0x00000936:    f000f8bc    ....    BL       LCD_WR_DATA ; 0xab2
        0x0000093a:    bd10        ..      POP      {r4,pc}
    $d
        0x0000093c:    2000000c    ...     DCD    536870924
    $t
    i.LCD_ShowChar
    LCD_ShowChar
        0x00000940:    b5ff        ..      PUSH     {r0-r7,lr}
        0x00000942:    b085        ..      SUB      sp,sp,#0x14
        0x00000944:    460e        .F      MOV      r6,r1
        0x00000946:    4617        .F      MOV      r7,r2
        0x00000948:    2410        .$      MOVS     r4,#0x10
        0x0000094a:    9602        ..      STR      r6,[sp,#8]
        0x0000094c:    4620         F      MOV      r0,r4
        0x0000094e:    17e2        ..      ASRS     r2,r4,#31
        0x00000950:    0f52        R.      LSRS     r2,r2,#29
        0x00000952:    1812        ..      ADDS     r2,r2,r0
        0x00000954:    10d2        ..      ASRS     r2,r2,#3
        0x00000956:    17e3        ..      ASRS     r3,r4,#31
        0x00000958:    0f5b        [.      LSRS     r3,r3,#29
        0x0000095a:    181b        ..      ADDS     r3,r3,r0
        0x0000095c:    10db        ..      ASRS     r3,r3,#3
        0x0000095e:    00db        ..      LSLS     r3,r3,#3
        0x00000960:    9400        ..      STR      r4,[sp,#0]
        0x00000962:    1ae3        ..      SUBS     r3,r4,r3
        0x00000964:    d001        ..      BEQ      0x96a ; LCD_ShowChar + 42
        0x00000966:    2301        .#      MOVS     r3,#1
        0x00000968:    e000        ..      B        0x96c ; LCD_ShowChar + 44
        0x0000096a:    2300        .#      MOVS     r3,#0
        0x0000096c:    18d2        ..      ADDS     r2,r2,r3
        0x0000096e:    4621        !F      MOV      r1,r4
        0x00000970:    0fe3        ..      LSRS     r3,r4,#31
        0x00000972:    185b        [.      ADDS     r3,r3,r1
        0x00000974:    105b        [.      ASRS     r3,r3,#1
        0x00000976:    435a        ZC      MULS     r2,r3,r2
        0x00000978:    b2d2        ..      UXTB     r2,r2
        0x0000097a:    9201        ..      STR      r2,[sp,#4]
        0x0000097c:    4638        8F      MOV      r0,r7
        0x0000097e:    3820         8      SUBS     r0,r0,#0x20
        0x00000980:    b2c7        ..      UXTB     r7,r0
        0x00000982:    2500        .%      MOVS     r5,#0
        0x00000984:    e056        V.      B        0xa34 ; LCD_ShowChar + 244
        0x00000986:    2c0c        .,      CMP      r4,#0xc
        0x00000988:    d105        ..      BNE      0x996 ; LCD_ShowChar + 86
        0x0000098a:    0138        8.      LSLS     r0,r7,#4
        0x0000098c:    492c        ,I      LDR      r1,[pc,#176] ; [0xa40] = 0x1296
        0x0000098e:    1840        @.      ADDS     r0,r0,r1
        0x00000990:    5d40        @]      LDRB     r0,[r0,r5]
        0x00000992:    9004        ..      STR      r0,[sp,#0x10]
        0x00000994:    e011        ..      B        0x9ba ; LCD_ShowChar + 122
        0x00000996:    2c10        .,      CMP      r4,#0x10
        0x00000998:    d105        ..      BNE      0x9a6 ; LCD_ShowChar + 102
        0x0000099a:    0138        8.      LSLS     r0,r7,#4
        0x0000099c:    4928        (I      LDR      r1,[pc,#160] ; [0xa40] = 0x1296
        0x0000099e:    1840        @.      ADDS     r0,r0,r1
        0x000009a0:    5d40        @]      LDRB     r0,[r0,r5]
        0x000009a2:    9004        ..      STR      r0,[sp,#0x10]
        0x000009a4:    e009        ..      B        0x9ba ; LCD_ShowChar + 122
        0x000009a6:    2c18        .,      CMP      r4,#0x18
        0x000009a8:    d105        ..      BNE      0x9b6 ; LCD_ShowChar + 118
        0x000009aa:    0138        8.      LSLS     r0,r7,#4
        0x000009ac:    4924        $I      LDR      r1,[pc,#144] ; [0xa40] = 0x1296
        0x000009ae:    1840        @.      ADDS     r0,r0,r1
        0x000009b0:    5d40        @]      LDRB     r0,[r0,r5]
        0x000009b2:    9004        ..      STR      r0,[sp,#0x10]
        0x000009b4:    e001        ..      B        0x9ba ; LCD_ShowChar + 122
        0x000009b6:    b009        ..      ADD      sp,sp,#0x24
        0x000009b8:    bdf0        ..      POP      {r4-r7,pc}
        0x000009ba:    2000        .       MOVS     r0,#0
        0x000009bc:    9003        ..      STR      r0,[sp,#0xc]
        0x000009be:    e033        3.      B        0xa28 ; LCD_ShowChar + 232
        0x000009c0:    2180        .!      MOVS     r1,#0x80
        0x000009c2:    9804        ..      LDR      r0,[sp,#0x10]
        0x000009c4:    4008        .@      ANDS     r0,r0,r1
        0x000009c6:    2800        .(      CMP      r0,#0
        0x000009c8:    d006        ..      BEQ      0x9d8 ; LCD_ShowChar + 152
        0x000009ca:    481e        .H      LDR      r0,[pc,#120] ; [0xa44] = 0x20000000
        0x000009cc:    8802        ..      LDRH     r2,[r0,#0]
        0x000009ce:    4631        1F      MOV      r1,r6
        0x000009d0:    9805        ..      LDR      r0,[sp,#0x14]
        0x000009d2:    f7fffcad    ....    BL       LCD_Fast_DrawPoint ; 0x330
        0x000009d6:    e008        ..      B        0x9ea ; LCD_ShowChar + 170
        0x000009d8:    9808        ..      LDR      r0,[sp,#0x20]
        0x000009da:    2800        .(      CMP      r0,#0
        0x000009dc:    d105        ..      BNE      0x9ea ; LCD_ShowChar + 170
        0x000009de:    481a        .H      LDR      r0,[pc,#104] ; [0xa48] = 0x20000002
        0x000009e0:    8802        ..      LDRH     r2,[r0,#0]
        0x000009e2:    4631        1F      MOV      r1,r6
        0x000009e4:    9805        ..      LDR      r0,[sp,#0x14]
        0x000009e6:    f7fffca3    ....    BL       LCD_Fast_DrawPoint ; 0x330
        0x000009ea:    9804        ..      LDR      r0,[sp,#0x10]
        0x000009ec:    0640        @.      LSLS     r0,r0,#25
        0x000009ee:    0e00        ..      LSRS     r0,r0,#24
        0x000009f0:    9004        ..      STR      r0,[sp,#0x10]
        0x000009f2:    1c70        p.      ADDS     r0,r6,#1
        0x000009f4:    b286        ..      UXTH     r6,r0
        0x000009f6:    4815        .H      LDR      r0,[pc,#84] ; [0xa4c] = 0x2000000c
        0x000009f8:    8840        @.      LDRH     r0,[r0,#2]
        0x000009fa:    42b0        .B      CMP      r0,r6
        0x000009fc:    dc00        ..      BGT      0xa00 ; LCD_ShowChar + 192
        0x000009fe:    e7da        ..      B        0x9b6 ; LCD_ShowChar + 118
        0x00000a00:    9802        ..      LDR      r0,[sp,#8]
        0x00000a02:    1a30        0.      SUBS     r0,r6,r0
        0x00000a04:    42a0        .B      CMP      r0,r4
        0x00000a06:    d10b        ..      BNE      0xa20 ; LCD_ShowChar + 224
        0x00000a08:    9e02        ..      LDR      r6,[sp,#8]
        0x00000a0a:    9805        ..      LDR      r0,[sp,#0x14]
        0x00000a0c:    1c40        @.      ADDS     r0,r0,#1
        0x00000a0e:    b280        ..      UXTH     r0,r0
        0x00000a10:    9005        ..      STR      r0,[sp,#0x14]
        0x00000a12:    480e        .H      LDR      r0,[pc,#56] ; [0xa4c] = 0x2000000c
        0x00000a14:    8801        ..      LDRH     r1,[r0,#0]
        0x00000a16:    9805        ..      LDR      r0,[sp,#0x14]
        0x00000a18:    4281        .B      CMP      r1,r0
        0x00000a1a:    dc00        ..      BGT      0xa1e ; LCD_ShowChar + 222
        0x00000a1c:    e7cb        ..      B        0x9b6 ; LCD_ShowChar + 118
        0x00000a1e:    e006        ..      B        0xa2e ; LCD_ShowChar + 238
        0x00000a20:    9803        ..      LDR      r0,[sp,#0xc]
        0x00000a22:    1c40        @.      ADDS     r0,r0,#1
        0x00000a24:    b2c0        ..      UXTB     r0,r0
        0x00000a26:    9003        ..      STR      r0,[sp,#0xc]
        0x00000a28:    9803        ..      LDR      r0,[sp,#0xc]
        0x00000a2a:    2808        .(      CMP      r0,#8
        0x00000a2c:    dbc8        ..      BLT      0x9c0 ; LCD_ShowChar + 128
        0x00000a2e:    bf00        ..      NOP      
        0x00000a30:    1c68        h.      ADDS     r0,r5,#1
        0x00000a32:    b2c5        ..      UXTB     r5,r0
        0x00000a34:    9801        ..      LDR      r0,[sp,#4]
        0x00000a36:    4285        .B      CMP      r5,r0
        0x00000a38:    dba5        ..      BLT      0x986 ; LCD_ShowChar + 70
        0x00000a3a:    bf00        ..      NOP      
        0x00000a3c:    e7bb        ..      B        0x9b6 ; LCD_ShowChar + 118
    $d
        0x00000a3e:    0000        ..      DCW    0
        0x00000a40:    00001296    ....    DCD    4758
        0x00000a44:    20000000    ...     DCD    536870912
        0x00000a48:    20000002    ...     DCD    536870914
        0x00000a4c:    2000000c    ...     DCD    536870924
    $t
    i.LCD_ShowString
    LCD_ShowString
        0x00000a50:    b5ff        ..      PUSH     {r0-r7,lr}
        0x00000a52:    b081        ..      SUB      sp,sp,#4
        0x00000a54:    4604        .F      MOV      r4,r0
        0x00000a56:    460d        .F      MOV      r5,r1
        0x00000a58:    9e0a        ..      LDR      r6,[sp,#0x28]
        0x00000a5a:    2710        .'      MOVS     r7,#0x10
        0x00000a5c:    b2e0        ..      UXTB     r0,r4
        0x00000a5e:    9000        ..      STR      r0,[sp,#0]
        0x00000a60:    9803        ..      LDR      r0,[sp,#0xc]
        0x00000a62:    1900        ..      ADDS     r0,r0,r4
        0x00000a64:    b280        ..      UXTH     r0,r0
        0x00000a66:    9003        ..      STR      r0,[sp,#0xc]
        0x00000a68:    9804        ..      LDR      r0,[sp,#0x10]
        0x00000a6a:    1940        @.      ADDS     r0,r0,r5
        0x00000a6c:    b280        ..      UXTH     r0,r0
        0x00000a6e:    9004        ..      STR      r0,[sp,#0x10]
        0x00000a70:    e016        ..      B        0xaa0 ; LCD_ShowString + 80
        0x00000a72:    9803        ..      LDR      r0,[sp,#0xc]
        0x00000a74:    4284        .B      CMP      r4,r0
        0x00000a76:    db02        ..      BLT      0xa7e ; LCD_ShowString + 46
        0x00000a78:    9c00        ..      LDR      r4,[sp,#0]
        0x00000a7a:    19e8        ..      ADDS     r0,r5,r7
        0x00000a7c:    b285        ..      UXTH     r5,r0
        0x00000a7e:    9804        ..      LDR      r0,[sp,#0x10]
        0x00000a80:    4285        .B      CMP      r5,r0
        0x00000a82:    db00        ..      BLT      0xa86 ; LCD_ShowString + 54
        0x00000a84:    e012        ..      B        0xaac ; LCD_ShowString + 92
        0x00000a86:    7832        2x      LDRB     r2,[r6,#0]
        0x00000a88:    2300        .#      MOVS     r3,#0
        0x00000a8a:    4629        )F      MOV      r1,r5
        0x00000a8c:    4620         F      MOV      r0,r4
        0x00000a8e:    f7ffff57    ..W.    BL       LCD_ShowChar ; 0x940
        0x00000a92:    4638        8F      MOV      r0,r7
        0x00000a94:    0ff9        ..      LSRS     r1,r7,#31
        0x00000a96:    1809        ..      ADDS     r1,r1,r0
        0x00000a98:    1049        I.      ASRS     r1,r1,#1
        0x00000a9a:    1909        ..      ADDS     r1,r1,r4
        0x00000a9c:    b28c        ..      UXTH     r4,r1
        0x00000a9e:    1c76        v.      ADDS     r6,r6,#1
        0x00000aa0:    7830        0x      LDRB     r0,[r6,#0]
        0x00000aa2:    287e        ~(      CMP      r0,#0x7e
        0x00000aa4:    dc02        ..      BGT      0xaac ; LCD_ShowString + 92
        0x00000aa6:    7830        0x      LDRB     r0,[r6,#0]
        0x00000aa8:    2820         (      CMP      r0,#0x20
        0x00000aaa:    dae2        ..      BGE      0xa72 ; LCD_ShowString + 34
        0x00000aac:    bf00        ..      NOP      
        0x00000aae:    b005        ..      ADD      sp,sp,#0x14
        0x00000ab0:    bdf0        ..      POP      {r4-r7,pc}
    i.LCD_WR_DATA
    LCD_WR_DATA
        0x00000ab2:    b500        ..      PUSH     {lr}
        0x00000ab4:    4602        .F      MOV      r2,r0
        0x00000ab6:    2001        .       MOVS     r0,#1
        0x00000ab8:    2105        .!      MOVS     r1,#5
        0x00000aba:    0709        ..      LSLS     r1,r1,#28
        0x00000abc:    6048        H`      STR      r0,[r1,#4]
        0x00000abe:    2000        .       MOVS     r0,#0
        0x00000ac0:    6008        .`      STR      r0,[r1,#0]
        0x00000ac2:    4610        .F      MOV      r0,r2
        0x00000ac4:    f000f848    ..H.    BL       MakeData ; 0xb58
        0x00000ac8:    2000        .       MOVS     r0,#0
        0x00000aca:    2105        .!      MOVS     r1,#5
        0x00000acc:    0709        ..      LSLS     r1,r1,#28
        0x00000ace:    6088        .`      STR      r0,[r1,#8]
        0x00000ad0:    2001        .       MOVS     r0,#1
        0x00000ad2:    6088        .`      STR      r0,[r1,#8]
        0x00000ad4:    6008        .`      STR      r0,[r1,#0]
        0x00000ad6:    bd00        ..      POP      {pc}
    i.LCD_WR_REG
    LCD_WR_REG
        0x00000ad8:    b500        ..      PUSH     {lr}
        0x00000ada:    4602        .F      MOV      r2,r0
        0x00000adc:    2000        .       MOVS     r0,#0
        0x00000ade:    2105        .!      MOVS     r1,#5
        0x00000ae0:    0709        ..      LSLS     r1,r1,#28
        0x00000ae2:    6048        H`      STR      r0,[r1,#4]
        0x00000ae4:    6008        .`      STR      r0,[r1,#0]
        0x00000ae6:    4610        .F      MOV      r0,r2
        0x00000ae8:    f000f836    ..6.    BL       MakeData ; 0xb58
        0x00000aec:    2000        .       MOVS     r0,#0
        0x00000aee:    2105        .!      MOVS     r1,#5
        0x00000af0:    0709        ..      LSLS     r1,r1,#28
        0x00000af2:    6088        .`      STR      r0,[r1,#8]
        0x00000af4:    2001        .       MOVS     r0,#1
        0x00000af6:    6088        .`      STR      r0,[r1,#8]
        0x00000af8:    6008        .`      STR      r0,[r1,#0]
        0x00000afa:    bd00        ..      POP      {pc}
    i.LCD_WriteRAM_Prepare
    LCD_WriteRAM_Prepare
        0x00000afc:    b500        ..      PUSH     {lr}
        0x00000afe:    4902        .I      LDR      r1,[pc,#8] ; [0xb08] = 0x2000000c
        0x00000b00:    8908        ..      LDRH     r0,[r1,#8]
        0x00000b02:    f7ffffe9    ....    BL       LCD_WR_REG ; 0xad8
        0x00000b06:    bd00        ..      POP      {pc}
    $d
        0x00000b08:    2000000c    ...     DCD    536870924
    $t
    i.LCD_WriteReg
    LCD_WriteReg
        0x00000b0c:    b510        ..      PUSH     {r4,lr}
        0x00000b0e:    4604        .F      MOV      r4,r0
        0x00000b10:    460b        .F      MOV      r3,r1
        0x00000b12:    4620         F      MOV      r0,r4
        0x00000b14:    f7ffffe0    ....    BL       LCD_WR_REG ; 0xad8
        0x00000b18:    4618        .F      MOV      r0,r3
        0x00000b1a:    f7ffffca    ....    BL       LCD_WR_DATA ; 0xab2
        0x00000b1e:    bd10        ..      POP      {r4,pc}
    i.LED_toggle
    LED_toggle
        0x00000b20:    b530        0.      PUSH     {r4,r5,lr}
        0x00000b22:    4602        .F      MOV      r2,r0
        0x00000b24:    2000        .       MOVS     r0,#0
        0x00000b26:    2100        .!      MOVS     r1,#0
        0x00000b28:    2300        .#      MOVS     r3,#0
        0x00000b2a:    4c0a        .L      LDR      r4,[pc,#40] ; [0xb54] = 0x40001000
        0x00000b2c:    6821        !h      LDR      r1,[r4,#0]
        0x00000b2e:    2401        .$      MOVS     r4,#1
        0x00000b30:    4094        .@      LSLS     r4,r4,r2
        0x00000b32:    4620         F      MOV      r0,r4
        0x00000b34:    4604        .F      MOV      r4,r0
        0x00000b36:    400c        .@      ANDS     r4,r4,r1
        0x00000b38:    4623        #F      MOV      r3,r4
        0x00000b3a:    2b00        .+      CMP      r3,#0
        0x00000b3c:    d104        ..      BNE      0xb48 ; LED_toggle + 40
        0x00000b3e:    460c        .F      MOV      r4,r1
        0x00000b40:    4304        .C      ORRS     r4,r4,r0
        0x00000b42:    4d04        .M      LDR      r5,[pc,#16] ; [0xb54] = 0x40001000
        0x00000b44:    602c        ,`      STR      r4,[r5,#0]
        0x00000b46:    e003        ..      B        0xb50 ; LED_toggle + 48
        0x00000b48:    460c        .F      MOV      r4,r1
        0x00000b4a:    4384        .C      BICS     r4,r4,r0
        0x00000b4c:    4d01        .M      LDR      r5,[pc,#4] ; [0xb54] = 0x40001000
        0x00000b4e:    602c        ,`      STR      r4,[r5,#0]
        0x00000b50:    bd30        0.      POP      {r4,r5,pc}
    $d
        0x00000b52:    0000        ..      DCW    0
        0x00000b54:    40001000    ...@    DCD    1073745920
    $t
    i.MakeData
    MakeData
        0x00000b58:    2105        .!      MOVS     r1,#5
        0x00000b5a:    0709        ..      LSLS     r1,r1,#28
        0x00000b5c:    6188        .a      STR      r0,[r1,#0x18]
        0x00000b5e:    4770        pG      BX       lr
    i.MemManageHandler
    MemManageHandler
        0x00000b60:    4770        pG      BX       lr
    i.NMIHandler
    NMIHandler
        0x00000b62:    4770        pG      BX       lr
    i.NVIC_EnableIRQ
    NVIC_EnableIRQ
        0x00000b64:    06c2        ..      LSLS     r2,r0,#27
        0x00000b66:    0ed2        ..      LSRS     r2,r2,#27
        0x00000b68:    2101        .!      MOVS     r1,#1
        0x00000b6a:    4091        .@      LSLS     r1,r1,r2
        0x00000b6c:    4a01        .J      LDR      r2,[pc,#4] ; [0xb74] = 0xe000e100
        0x00000b6e:    6011        .`      STR      r1,[r2,#0]
        0x00000b70:    4770        pG      BX       lr
    $d
        0x00000b72:    0000        ..      DCW    0
        0x00000b74:    e000e100    ....    DCD    3758153984
    $t
    i.PendSVHandler
    PendSVHandler
        0x00000b78:    4770        pG      BX       lr
        0x00000b7a:    0000        ..      MOVS     r0,r0
    i.Read_CAMERA_DATA_STATE
    Read_CAMERA_DATA_STATE
        0x00000b7c:    4801        .H      LDR      r0,[pc,#4] ; [0xb84] = 0x40050000
        0x00000b7e:    6980        .i      LDR      r0,[r0,#0x18]
        0x00000b80:    4770        pG      BX       lr
    $d
        0x00000b82:    0000        ..      DCW    0
        0x00000b84:    40050000    ...@    DCD    1074069504
    $t
    i.SPI_FLASH_Write_Enable
    SPI_FLASH_Write_Enable
        0x00000b88:    b500        ..      PUSH     {lr}
        0x00000b8a:    2000        .       MOVS     r0,#0
        0x00000b8c:    4904        .I      LDR      r1,[pc,#16] ; [0xba0] = 0x40004000
        0x00000b8e:    6008        .`      STR      r0,[r1,#0]
        0x00000b90:    2006        .       MOVS     r0,#6
        0x00000b92:    f000f889    ....    BL       SPI_ReadWriteByte ; 0xca8
        0x00000b96:    2001        .       MOVS     r0,#1
        0x00000b98:    4901        .I      LDR      r1,[pc,#4] ; [0xba0] = 0x40004000
        0x00000b9a:    6008        .`      STR      r0,[r1,#0]
        0x00000b9c:    bd00        ..      POP      {pc}
    $d
        0x00000b9e:    0000        ..      DCW    0
        0x00000ba0:    40004000    .@.@    DCD    1073758208
    $t
    i.SPI_Flash_Erase_Chip
    SPI_Flash_Erase_Chip
        0x00000ba4:    b500        ..      PUSH     {lr}
        0x00000ba6:    f7ffffef    ....    BL       SPI_FLASH_Write_Enable ; 0xb88
        0x00000baa:    f000f86b    ..k.    BL       SPI_Flash_Wait_Busy ; 0xc84
        0x00000bae:    2000        .       MOVS     r0,#0
        0x00000bb0:    4905        .I      LDR      r1,[pc,#20] ; [0xbc8] = 0x40004000
        0x00000bb2:    6008        .`      STR      r0,[r1,#0]
        0x00000bb4:    20c7        .       MOVS     r0,#0xc7
        0x00000bb6:    f000f877    ..w.    BL       SPI_ReadWriteByte ; 0xca8
        0x00000bba:    2001        .       MOVS     r0,#1
        0x00000bbc:    4902        .I      LDR      r1,[pc,#8] ; [0xbc8] = 0x40004000
        0x00000bbe:    6008        .`      STR      r0,[r1,#0]
        0x00000bc0:    f000f860    ..`.    BL       SPI_Flash_Wait_Busy ; 0xc84
        0x00000bc4:    bd00        ..      POP      {pc}
    $d
        0x00000bc6:    0000        ..      DCW    0
        0x00000bc8:    40004000    .@.@    DCD    1073758208
    $t
    i.SPI_Flash_Read
    SPI_Flash_Read
        0x00000bcc:    b5f0        ..      PUSH     {r4-r7,lr}
        0x00000bce:    4606        .F      MOV      r6,r0
        0x00000bd0:    460c        .F      MOV      r4,r1
        0x00000bd2:    4617        .F      MOV      r7,r2
        0x00000bd4:    2000        .       MOVS     r0,#0
        0x00000bd6:    490f        .I      LDR      r1,[pc,#60] ; [0xc14] = 0x40004000
        0x00000bd8:    6008        .`      STR      r0,[r1,#0]
        0x00000bda:    2003        .       MOVS     r0,#3
        0x00000bdc:    f000f864    ..d.    BL       SPI_ReadWriteByte ; 0xca8
        0x00000be0:    0221        !.      LSLS     r1,r4,#8
        0x00000be2:    0e08        ..      LSRS     r0,r1,#24
        0x00000be4:    f000f860    ..`.    BL       SPI_ReadWriteByte ; 0xca8
        0x00000be8:    0421        !.      LSLS     r1,r4,#16
        0x00000bea:    0e08        ..      LSRS     r0,r1,#24
        0x00000bec:    f000f85c    ..\.    BL       SPI_ReadWriteByte ; 0xca8
        0x00000bf0:    b2e0        ..      UXTB     r0,r4
        0x00000bf2:    f000f859    ..Y.    BL       SPI_ReadWriteByte ; 0xca8
        0x00000bf6:    2500        .%      MOVS     r5,#0
        0x00000bf8:    e005        ..      B        0xc06 ; SPI_Flash_Read + 58
        0x00000bfa:    20ff        .       MOVS     r0,#0xff
        0x00000bfc:    f000f854    ..T.    BL       SPI_ReadWriteByte ; 0xca8
        0x00000c00:    5570        pU      STRB     r0,[r6,r5]
        0x00000c02:    1c68        h.      ADDS     r0,r5,#1
        0x00000c04:    b285        ..      UXTH     r5,r0
        0x00000c06:    42bd        .B      CMP      r5,r7
        0x00000c08:    dbf7        ..      BLT      0xbfa ; SPI_Flash_Read + 46
        0x00000c0a:    2001        .       MOVS     r0,#1
        0x00000c0c:    4901        .I      LDR      r1,[pc,#4] ; [0xc14] = 0x40004000
        0x00000c0e:    6008        .`      STR      r0,[r1,#0]
        0x00000c10:    bdf0        ..      POP      {r4-r7,pc}
    $d
        0x00000c12:    0000        ..      DCW    0
        0x00000c14:    40004000    .@.@    DCD    1073758208
    $t
    i.SPI_Flash_ReadID
    SPI_Flash_ReadID
        0x00000c18:    b510        ..      PUSH     {r4,lr}
        0x00000c1a:    2400        .$      MOVS     r4,#0
        0x00000c1c:    2000        .       MOVS     r0,#0
        0x00000c1e:    490e        .I      LDR      r1,[pc,#56] ; [0xc58] = 0x40004000
        0x00000c20:    6008        .`      STR      r0,[r1,#0]
        0x00000c22:    2090        .       MOVS     r0,#0x90
        0x00000c24:    f000f840    ..@.    BL       SPI_ReadWriteByte ; 0xca8
        0x00000c28:    2000        .       MOVS     r0,#0
        0x00000c2a:    f000f83d    ..=.    BL       SPI_ReadWriteByte ; 0xca8
        0x00000c2e:    2000        .       MOVS     r0,#0
        0x00000c30:    f000f83a    ..:.    BL       SPI_ReadWriteByte ; 0xca8
        0x00000c34:    2000        .       MOVS     r0,#0
        0x00000c36:    f000f837    ..7.    BL       SPI_ReadWriteByte ; 0xca8
        0x00000c3a:    20ff        .       MOVS     r0,#0xff
        0x00000c3c:    f000f834    ..4.    BL       SPI_ReadWriteByte ; 0xca8
        0x00000c40:    0200        ..      LSLS     r0,r0,#8
        0x00000c42:    4304        .C      ORRS     r4,r4,r0
        0x00000c44:    20ff        .       MOVS     r0,#0xff
        0x00000c46:    f000f82f    ../.    BL       SPI_ReadWriteByte ; 0xca8
        0x00000c4a:    4304        .C      ORRS     r4,r4,r0
        0x00000c4c:    2001        .       MOVS     r0,#1
        0x00000c4e:    4902        .I      LDR      r1,[pc,#8] ; [0xc58] = 0x40004000
        0x00000c50:    6008        .`      STR      r0,[r1,#0]
        0x00000c52:    4620         F      MOV      r0,r4
        0x00000c54:    bd10        ..      POP      {r4,pc}
    $d
        0x00000c56:    0000        ..      DCW    0
        0x00000c58:    40004000    .@.@    DCD    1073758208
    $t
    i.SPI_Flash_ReadSR
    SPI_Flash_ReadSR
        0x00000c5c:    b510        ..      PUSH     {r4,lr}
        0x00000c5e:    2400        .$      MOVS     r4,#0
        0x00000c60:    2000        .       MOVS     r0,#0
        0x00000c62:    4907        .I      LDR      r1,[pc,#28] ; [0xc80] = 0x40004000
        0x00000c64:    6008        .`      STR      r0,[r1,#0]
        0x00000c66:    2005        .       MOVS     r0,#5
        0x00000c68:    f000f81e    ....    BL       SPI_ReadWriteByte ; 0xca8
        0x00000c6c:    20ff        .       MOVS     r0,#0xff
        0x00000c6e:    f000f81b    ....    BL       SPI_ReadWriteByte ; 0xca8
        0x00000c72:    4604        .F      MOV      r4,r0
        0x00000c74:    2001        .       MOVS     r0,#1
        0x00000c76:    4902        .I      LDR      r1,[pc,#8] ; [0xc80] = 0x40004000
        0x00000c78:    6008        .`      STR      r0,[r1,#0]
        0x00000c7a:    4620         F      MOV      r0,r4
        0x00000c7c:    bd10        ..      POP      {r4,pc}
    $d
        0x00000c7e:    0000        ..      DCW    0
        0x00000c80:    40004000    .@.@    DCD    1073758208
    $t
    i.SPI_Flash_Wait_Busy
    SPI_Flash_Wait_Busy
        0x00000c84:    b500        ..      PUSH     {lr}
        0x00000c86:    bf00        ..      NOP      
        0x00000c88:    f7ffffe8    ....    BL       SPI_Flash_ReadSR ; 0xc5c
        0x00000c8c:    07c0        ..      LSLS     r0,r0,#31
        0x00000c8e:    0fc0        ..      LSRS     r0,r0,#31
        0x00000c90:    2800        .(      CMP      r0,#0
        0x00000c92:    d1f9        ..      BNE      0xc88 ; SPI_Flash_Wait_Busy + 4
        0x00000c94:    bd00        ..      POP      {pc}
        0x00000c96:    0000        ..      MOVS     r0,r0
    i.SPI_Init
    SPI_Init
        0x00000c98:    4902        .I      LDR      r1,[pc,#8] ; [0xca4] = 0x40004000
        0x00000c9a:    6048        H`      STR      r0,[r1,#4]
        0x00000c9c:    2101        .!      MOVS     r1,#1
        0x00000c9e:    4a01        .J      LDR      r2,[pc,#4] ; [0xca4] = 0x40004000
        0x00000ca0:    6011        .`      STR      r1,[r2,#0]
        0x00000ca2:    4770        pG      BX       lr
    $d
        0x00000ca4:    40004000    .@.@    DCD    1073758208
    $t
    i.SPI_ReadWriteByte
    SPI_ReadWriteByte
        0x00000ca8:    b510        ..      PUSH     {r4,lr}
        0x00000caa:    4604        .F      MOV      r4,r0
        0x00000cac:    2300        .#      MOVS     r3,#0
        0x00000cae:    e005        ..      B        0xcbc ; SPI_ReadWriteByte + 20
        0x00000cb0:    1c58        X.      ADDS     r0,r3,#1
        0x00000cb2:    b2c3        ..      UXTB     r3,r0
        0x00000cb4:    2bc8        .+      CMP      r3,#0xc8
        0x00000cb6:    dd01        ..      BLE      0xcbc ; SPI_ReadWriteByte + 20
        0x00000cb8:    2000        .       MOVS     r0,#0
        0x00000cba:    bd10        ..      POP      {r4,pc}
        0x00000cbc:    f7fffa8e    ....    BL       Is_SPI_Ready ; 0x1dc
        0x00000cc0:    2800        .(      CMP      r0,#0
        0x00000cc2:    d0f5        ..      BEQ      0xcb0 ; SPI_ReadWriteByte + 8
        0x00000cc4:    4620         F      MOV      r0,r4
        0x00000cc6:    f000f813    ....    BL       SPI_SendData ; 0xcf0
        0x00000cca:    2300        .#      MOVS     r3,#0
        0x00000ccc:    e005        ..      B        0xcda ; SPI_ReadWriteByte + 50
        0x00000cce:    1c58        X.      ADDS     r0,r3,#1
        0x00000cd0:    b2c3        ..      UXTB     r3,r0
        0x00000cd2:    2bc8        .+      CMP      r3,#0xc8
        0x00000cd4:    dd01        ..      BLE      0xcda ; SPI_ReadWriteByte + 50
        0x00000cd6:    2000        .       MOVS     r0,#0
        0x00000cd8:    e7ef        ..      B        0xcba ; SPI_ReadWriteByte + 18
        0x00000cda:    f7fffa7f    ....    BL       Is_SPI_Ready ; 0x1dc
        0x00000cde:    2800        .(      CMP      r0,#0
        0x00000ce0:    d0f5        ..      BEQ      0xcce ; SPI_ReadWriteByte + 38
        0x00000ce2:    4802        .H      LDR      r0,[pc,#8] ; [0xcec] = 0x40004000
        0x00000ce4:    6900        .i      LDR      r0,[r0,#0x10]
        0x00000ce6:    b2c0        ..      UXTB     r0,r0
        0x00000ce8:    e7e7        ..      B        0xcba ; SPI_ReadWriteByte + 18
    $d
        0x00000cea:    0000        ..      DCW    0
        0x00000cec:    40004000    .@.@    DCD    1073758208
    $t
    i.SPI_SendData
    SPI_SendData
        0x00000cf0:    4903        .I      LDR      r1,[pc,#12] ; [0xd00] = 0x40004000
        0x00000cf2:    6088        .`      STR      r0,[r1,#8]
        0x00000cf4:    2101        .!      MOVS     r1,#1
        0x00000cf6:    4a02        .J      LDR      r2,[pc,#8] ; [0xd00] = 0x40004000
        0x00000cf8:    60d1        .`      STR      r1,[r2,#0xc]
        0x00000cfa:    2100        .!      MOVS     r1,#0
        0x00000cfc:    60d1        .`      STR      r1,[r2,#0xc]
        0x00000cfe:    4770        pG      BX       lr
    $d
        0x00000d00:    40004000    .@.@    DCD    1073758208
    $t
    i.SVCHandler
    SVCHandler
        0x00000d04:    4770        pG      BX       lr
        0x00000d06:    0000        ..      MOVS     r0,r0
    i.Set_CAMERA_DATA_STATE
    Set_CAMERA_DATA_STATE
        0x00000d08:    4901        .I      LDR      r1,[pc,#4] ; [0xd10] = 0x40050000
        0x00000d0a:    6188        .a      STR      r0,[r1,#0x18]
        0x00000d0c:    4770        pG      BX       lr
    $d
        0x00000d0e:    0000        ..      DCW    0
        0x00000d10:    40050000    ...@    DCD    1074069504
    $t
    i.Set_SysTick_CTRL
    Set_SysTick_CTRL
        0x00000d14:    4901        .I      LDR      r1,[pc,#4] ; [0xd1c] = 0xe000e000
        0x00000d16:    6108        .a      STR      r0,[r1,#0x10]
        0x00000d18:    4770        pG      BX       lr
    $d
        0x00000d1a:    0000        ..      DCW    0
        0x00000d1c:    e000e000    ....    DCD    3758153728
    $t
    i.Set_SysTick_LOAD
    Set_SysTick_LOAD
        0x00000d20:    4901        .I      LDR      r1,[pc,#4] ; [0xd28] = 0xe000e000
        0x00000d22:    6148        Ha      STR      r0,[r1,#0x14]
        0x00000d24:    4770        pG      BX       lr
    $d
        0x00000d26:    0000        ..      DCW    0
        0x00000d28:    e000e000    ....    DCD    3758153728
    $t
    i.Set_SysTick_VALUE
    Set_SysTick_VALUE
        0x00000d2c:    4901        .I      LDR      r1,[pc,#4] ; [0xd34] = 0xe000e000
        0x00000d2e:    6188        .a      STR      r0,[r1,#0x18]
        0x00000d30:    4770        pG      BX       lr
    $d
        0x00000d32:    0000        ..      DCW    0
        0x00000d34:    e000e000    ....    DCD    3758153728
    $t
    i.SysTickHandler
    SysTickHandler
        0x00000d38:    b510        ..      PUSH     {r4,lr}
        0x00000d3a:    2000        .       MOVS     r0,#0
        0x00000d3c:    f7ffffea    ....    BL       Set_SysTick_CTRL ; 0xd14
        0x00000d40:    4803        .H      LDR      r0,[pc,#12] ; [0xd50] = 0xe000ed00
        0x00000d42:    6840        @h      LDR      r0,[r0,#4]
        0x00000d44:    2101        .!      MOVS     r1,#1
        0x00000d46:    0649        I.      LSLS     r1,r1,#25
        0x00000d48:    4308        .C      ORRS     r0,r0,r1
        0x00000d4a:    4901        .I      LDR      r1,[pc,#4] ; [0xd50] = 0xe000ed00
        0x00000d4c:    6048        H`      STR      r0,[r1,#4]
        0x00000d4e:    bd10        ..      POP      {r4,pc}
    $d
        0x00000d50:    e000ed00    ....    DCD    3758157056
    $t
    i.SystemInit
    SystemInit
        0x00000d54:    4770        pG      BX       lr
        0x00000d56:    0000        ..      MOVS     r0,r0
    i.Timer_Handler
    Timer_Handler
        0x00000d58:    b510        ..      PUSH     {r4,lr}
        0x00000d5a:    2007        .       MOVS     r0,#7
        0x00000d5c:    f7fffee0    ....    BL       LED_toggle ; 0xb20
        0x00000d60:    a001        ..      ADR      r0,{pc}+8 ; 0xd68
        0x00000d62:    f000f81f    ....    BL       __0printf$5 ; 0xda4
        0x00000d66:    bd10        ..      POP      {r4,pc}
    $d
        0x00000d68:    656d6974    time    DCD    1701669236
        0x00000d6c:    6e692072    r in    DCD    1852383346
        0x00000d70:    636f2074    t oc    DCD    1668227188
        0x00000d74:    21727563    cur!    DCD    561149283
        0x00000d78:    000a2121    !!..    DCD    663841
    $t
    i.UARTOVRHandler
    UARTOVRHandler
        0x00000d7c:    4770        pG      BX       lr
    i.UARTRXHandler
    UARTRXHandler
        0x00000d7e:    b510        ..      PUSH     {r4,lr}
        0x00000d80:    2001        .       MOVS     r0,#1
        0x00000d82:    0780        ..      LSLS     r0,r0,#30
        0x00000d84:    f000fa4a    ..J.    BL       uart_ClearRxIRQ ; 0x121c
        0x00000d88:    2001        .       MOVS     r0,#1
        0x00000d8a:    f7fffec9    ....    BL       LED_toggle ; 0xb20
        0x00000d8e:    bd10        ..      POP      {r4,pc}
    i.UARTTXHandler
    UARTTXHandler
        0x00000d90:    b510        ..      PUSH     {r4,lr}
        0x00000d92:    2001        .       MOVS     r0,#1
        0x00000d94:    0780        ..      LSLS     r0,r0,#30
        0x00000d96:    f000fa44    ..D.    BL       uart_ClearTxIRQ ; 0x1222
        0x00000d9a:    2002        .       MOVS     r0,#2
        0x00000d9c:    f7fffec0    ....    BL       LED_toggle ; 0xb20
        0x00000da0:    bd10        ..      POP      {r4,pc}
    i.UsageFaultHandler
    UsageFaultHandler
        0x00000da2:    4770        pG      BX       lr
    i.__0printf$5
    __0printf$5
    __1printf$5
    __2printf
        0x00000da4:    b40f        ..      PUSH     {r0-r3}
        0x00000da6:    b510        ..      PUSH     {r4,lr}
        0x00000da8:    a903        ..      ADD      r1,sp,#0xc
        0x00000daa:    4b04        .K      LDR      r3,[pc,#16] ; [0xdbc] = 0x10fd
        0x00000dac:    4a04        .J      LDR      r2,[pc,#16] ; [0xdc0] = 0x20000004
        0x00000dae:    9802        ..      LDR      r0,[sp,#8]
        0x00000db0:    f000f826    ..&.    BL       _printf_core ; 0xe00
        0x00000db4:    bc10        ..      POP      {r4}
        0x00000db6:    bc08        ..      POP      {r3}
        0x00000db8:    b004        ..      ADD      sp,sp,#0x10
        0x00000dba:    4718        .G      BX       r3
    $d
        0x00000dbc:    000010fd    ....    DCD    4349
        0x00000dc0:    20000004    ...     DCD    536870916
    $t
    i.__ARM_common_switch8
    __ARM_common_switch8
        0x00000dc4:    b430        0.      PUSH     {r4,r5}
        0x00000dc6:    4674        tF      MOV      r4,lr
        0x00000dc8:    1e64        d.      SUBS     r4,r4,#1
        0x00000dca:    7825        %x      LDRB     r5,[r4,#0]
        0x00000dcc:    1c64        d.      ADDS     r4,r4,#1
        0x00000dce:    42ab        .B      CMP      r3,r5
        0x00000dd0:    d304        ..      BCC      0xddc ; __ARM_common_switch8 + 24
        0x00000dd2:    5d63        c]      LDRB     r3,[r4,r5]
        0x00000dd4:    005b        [.      LSLS     r3,r3,#1
        0x00000dd6:    18e3        ..      ADDS     r3,r4,r3
        0x00000dd8:    bc30        0.      POP      {r4,r5}
        0x00000dda:    4718        .G      BX       r3
        0x00000ddc:    461d        .F      MOV      r5,r3
        0x00000dde:    e7f8        ..      B        0xdd2 ; __ARM_common_switch8 + 14
    i.__scatterload_copy
    __scatterload_copy
        0x00000de0:    e002        ..      B        0xde8 ; __scatterload_copy + 8
        0x00000de2:    c808        ..      LDM      r0!,{r3}
        0x00000de4:    1f12        ..      SUBS     r2,r2,#4
        0x00000de6:    c108        ..      STM      r1!,{r3}
        0x00000de8:    2a00        .*      CMP      r2,#0
        0x00000dea:    d1fa        ..      BNE      0xde2 ; __scatterload_copy + 2
        0x00000dec:    4770        pG      BX       lr
    i.__scatterload_null
    __scatterload_null
        0x00000dee:    4770        pG      BX       lr
    i.__scatterload_zeroinit
    __scatterload_zeroinit
        0x00000df0:    2000        .       MOVS     r0,#0
        0x00000df2:    e001        ..      B        0xdf8 ; __scatterload_zeroinit + 8
        0x00000df4:    c101        ..      STM      r1!,{r0}
        0x00000df6:    1f12        ..      SUBS     r2,r2,#4
        0x00000df8:    2a00        .*      CMP      r2,#0
        0x00000dfa:    d1fb        ..      BNE      0xdf4 ; __scatterload_zeroinit + 4
        0x00000dfc:    4770        pG      BX       lr
        0x00000dfe:    0000        ..      MOVS     r0,r0
    i._printf_core
    _printf_core
        0x00000e00:    b5ff        ..      PUSH     {r0-r7,lr}
        0x00000e02:    b08f        ..      SUB      sp,sp,#0x3c
        0x00000e04:    460f        .F      MOV      r7,r1
        0x00000e06:    4604        .F      MOV      r4,r0
        0x00000e08:    2600        .&      MOVS     r6,#0
        0x00000e0a:    e006        ..      B        0xe1a ; _printf_core + 26
        0x00000e0c:    2825        %(      CMP      r0,#0x25
        0x00000e0e:    d00a        ..      BEQ      0xe26 ; _printf_core + 38
        0x00000e10:    9a12        ..      LDR      r2,[sp,#0x48]
        0x00000e12:    9911        ..      LDR      r1,[sp,#0x44]
        0x00000e14:    4790        .G      BLX      r2
        0x00000e16:    1c64        d.      ADDS     r4,r4,#1
        0x00000e18:    1c76        v.      ADDS     r6,r6,#1
        0x00000e1a:    7820         x      LDRB     r0,[r4,#0]
        0x00000e1c:    2800        .(      CMP      r0,#0
        0x00000e1e:    d1f5        ..      BNE      0xe0c ; _printf_core + 12
        0x00000e20:    4630        0F      MOV      r0,r6
        0x00000e22:    b013        ..      ADD      sp,sp,#0x4c
        0x00000e24:    bdf0        ..      POP      {r4-r7,pc}
        0x00000e26:    2500        .%      MOVS     r5,#0
        0x00000e28:    2101        .!      MOVS     r1,#1
        0x00000e2a:    4aa1        .J      LDR      r2,[pc,#644] ; [0x10b0] = 0x12809
        0x00000e2c:    9500        ..      STR      r5,[sp,#0]
        0x00000e2e:    e000        ..      B        0xe32 ; _printf_core + 50
        0x00000e30:    4305        .C      ORRS     r5,r5,r0
        0x00000e32:    1c64        d.      ADDS     r4,r4,#1
        0x00000e34:    7823        #x      LDRB     r3,[r4,#0]
        0x00000e36:    4608        .F      MOV      r0,r1
        0x00000e38:    3b20         ;      SUBS     r3,r3,#0x20
        0x00000e3a:    4098        .@      LSLS     r0,r0,r3
        0x00000e3c:    4210        .B      TST      r0,r2
        0x00000e3e:    d1f7        ..      BNE      0xe30 ; _printf_core + 48
        0x00000e40:    7820         x      LDRB     r0,[r4,#0]
        0x00000e42:    282e        .(      CMP      r0,#0x2e
        0x00000e44:    d115        ..      BNE      0xe72 ; _printf_core + 114
        0x00000e46:    2004        .       MOVS     r0,#4
        0x00000e48:    4305        .C      ORRS     r5,r5,r0
        0x00000e4a:    7860        `x      LDRB     r0,[r4,#1]
        0x00000e4c:    1c64        d.      ADDS     r4,r4,#1
        0x00000e4e:    282a        *(      CMP      r0,#0x2a
        0x00000e50:    d10a        ..      BNE      0xe68 ; _printf_core + 104
        0x00000e52:    cf01        ..      LDM      r7!,{r0}
        0x00000e54:    1c64        d.      ADDS     r4,r4,#1
        0x00000e56:    9000        ..      STR      r0,[sp,#0]
        0x00000e58:    e00b        ..      B        0xe72 ; _printf_core + 114
        0x00000e5a:    9900        ..      LDR      r1,[sp,#0]
        0x00000e5c:    220a        ."      MOVS     r2,#0xa
        0x00000e5e:    4351        QC      MULS     r1,r2,r1
        0x00000e60:    3930        09      SUBS     r1,r1,#0x30
        0x00000e62:    1840        @.      ADDS     r0,r0,r1
        0x00000e64:    1c64        d.      ADDS     r4,r4,#1
        0x00000e66:    9000        ..      STR      r0,[sp,#0]
        0x00000e68:    7820         x      LDRB     r0,[r4,#0]
        0x00000e6a:    4601        .F      MOV      r1,r0
        0x00000e6c:    3930        09      SUBS     r1,r1,#0x30
        0x00000e6e:    2909        .)      CMP      r1,#9
        0x00000e70:    d9f3        ..      BLS      0xe5a ; _printf_core + 90
        0x00000e72:    7820         x      LDRB     r0,[r4,#0]
        0x00000e74:    286c        l(      CMP      r0,#0x6c
        0x00000e76:    d00e        ..      BEQ      0xe96 ; _printf_core + 150
        0x00000e78:    dc04        ..      BGT      0xe84 ; _printf_core + 132
        0x00000e7a:    284c        L(      CMP      r0,#0x4c
        0x00000e7c:    d013        ..      BEQ      0xea6 ; _printf_core + 166
        0x00000e7e:    286a        j(      CMP      r0,#0x6a
        0x00000e80:    d112        ..      BNE      0xea8 ; _printf_core + 168
        0x00000e82:    e004        ..      B        0xe8e ; _printf_core + 142
        0x00000e84:    2874        t(      CMP      r0,#0x74
        0x00000e86:    d00e        ..      BEQ      0xea6 ; _printf_core + 166
        0x00000e88:    287a        z(      CMP      r0,#0x7a
        0x00000e8a:    d10d        ..      BNE      0xea8 ; _printf_core + 168
        0x00000e8c:    e00b        ..      B        0xea6 ; _printf_core + 166
        0x00000e8e:    2001        .       MOVS     r0,#1
        0x00000e90:    0540        @.      LSLS     r0,r0,#21
        0x00000e92:    4305        .C      ORRS     r5,r5,r0
        0x00000e94:    e007        ..      B        0xea6 ; _printf_core + 166
        0x00000e96:    2101        .!      MOVS     r1,#1
        0x00000e98:    0509        ..      LSLS     r1,r1,#20
        0x00000e9a:    7862        bx      LDRB     r2,[r4,#1]
        0x00000e9c:    430d        .C      ORRS     r5,r5,r1
        0x00000e9e:    4282        .B      CMP      r2,r0
        0x00000ea0:    d101        ..      BNE      0xea6 ; _printf_core + 166
        0x00000ea2:    186d        m.      ADDS     r5,r5,r1
        0x00000ea4:    1c64        d.      ADDS     r4,r4,#1
        0x00000ea6:    1c64        d.      ADDS     r4,r4,#1
        0x00000ea8:    7820         x      LDRB     r0,[r4,#0]
        0x00000eaa:    4686        .F      MOV      lr,r0
        0x00000eac:    2869        i(      CMP      r0,#0x69
        0x00000eae:    d04a        J.      BEQ      0xf46 ; _printf_core + 326
        0x00000eb0:    dc08        ..      BGT      0xec4 ; _printf_core + 196
        0x00000eb2:    2800        .(      CMP      r0,#0
        0x00000eb4:    d0b4        ..      BEQ      0xe20 ; _printf_core + 32
        0x00000eb6:    2858        X(      CMP      r0,#0x58
        0x00000eb8:    d06d        m.      BEQ      0xf96 ; _printf_core + 406
        0x00000eba:    2863        c(      CMP      r0,#0x63
        0x00000ebc:    d010        ..      BEQ      0xee0 ; _printf_core + 224
        0x00000ebe:    2864        d(      CMP      r0,#0x64
        0x00000ec0:    d108        ..      BNE      0xed4 ; _printf_core + 212
        0x00000ec2:    e040        @.      B        0xf46 ; _printf_core + 326
        0x00000ec4:    2870        p(      CMP      r0,#0x70
        0x00000ec6:    d06b        k.      BEQ      0xfa0 ; _printf_core + 416
        0x00000ec8:    2873        s(      CMP      r0,#0x73
        0x00000eca:    d012        ..      BEQ      0xef2 ; _printf_core + 242
        0x00000ecc:    2875        u(      CMP      r0,#0x75
        0x00000ece:    d060        `.      BEQ      0xf92 ; _printf_core + 402
        0x00000ed0:    2878        x(      CMP      r0,#0x78
        0x00000ed2:    d060        `.      BEQ      0xf96 ; _printf_core + 406
        0x00000ed4:    9a12        ..      LDR      r2,[sp,#0x48]
        0x00000ed6:    4670        pF      MOV      r0,lr
        0x00000ed8:    9911        ..      LDR      r1,[sp,#0x44]
        0x00000eda:    4790        .G      BLX      r2
        0x00000edc:    1c76        v.      ADDS     r6,r6,#1
        0x00000ede:    e0e5        ..      B        0x10ac ; _printf_core + 684
        0x00000ee0:    7838        8x      LDRB     r0,[r7,#0]
        0x00000ee2:    4669        iF      MOV      r1,sp
        0x00000ee4:    7208        .r      STRB     r0,[r1,#8]
        0x00000ee6:    2000        .       MOVS     r0,#0
        0x00000ee8:    7248        Hr      STRB     r0,[r1,#9]
        0x00000eea:    a802        ..      ADD      r0,sp,#8
        0x00000eec:    9001        ..      STR      r0,[sp,#4]
        0x00000eee:    2001        .       MOVS     r0,#1
        0x00000ef0:    e003        ..      B        0xefa ; _printf_core + 250
        0x00000ef2:    6838        8h      LDR      r0,[r7,#0]
        0x00000ef4:    9001        ..      STR      r0,[sp,#4]
        0x00000ef6:    2000        .       MOVS     r0,#0
        0x00000ef8:    43c0        .C      MVNS     r0,r0
        0x00000efa:    1d3f        ?.      ADDS     r7,r7,#4
        0x00000efc:    0769        i.      LSLS     r1,r5,#29
        0x00000efe:    d50c        ..      BPL      0xf1a ; _printf_core + 282
        0x00000f00:    2500        .%      MOVS     r5,#0
        0x00000f02:    e000        ..      B        0xf06 ; _printf_core + 262
        0x00000f04:    1c6d        m.      ADDS     r5,r5,#1
        0x00000f06:    9900        ..      LDR      r1,[sp,#0]
        0x00000f08:    428d        .B      CMP      r5,r1
        0x00000f0a:    da0f        ..      BGE      0xf2c ; _printf_core + 300
        0x00000f0c:    4285        .B      CMP      r5,r0
        0x00000f0e:    dbf9        ..      BLT      0xf04 ; _printf_core + 260
        0x00000f10:    9901        ..      LDR      r1,[sp,#4]
        0x00000f12:    5d49        I]      LDRB     r1,[r1,r5]
        0x00000f14:    2900        .)      CMP      r1,#0
        0x00000f16:    d1f5        ..      BNE      0xf04 ; _printf_core + 260
        0x00000f18:    e008        ..      B        0xf2c ; _printf_core + 300
        0x00000f1a:    2500        .%      MOVS     r5,#0
        0x00000f1c:    e000        ..      B        0xf20 ; _printf_core + 288
        0x00000f1e:    1c6d        m.      ADDS     r5,r5,#1
        0x00000f20:    4285        .B      CMP      r5,r0
        0x00000f22:    dbfc        ..      BLT      0xf1e ; _printf_core + 286
        0x00000f24:    9901        ..      LDR      r1,[sp,#4]
        0x00000f26:    5d49        I]      LDRB     r1,[r1,r5]
        0x00000f28:    2900        .)      CMP      r1,#0
        0x00000f2a:    d1f8        ..      BNE      0xf1e ; _printf_core + 286
        0x00000f2c:    1976        v.      ADDS     r6,r6,r5
        0x00000f2e:    e007        ..      B        0xf40 ; _printf_core + 320
        0x00000f30:    9801        ..      LDR      r0,[sp,#4]
        0x00000f32:    9901        ..      LDR      r1,[sp,#4]
        0x00000f34:    7800        .x      LDRB     r0,[r0,#0]
        0x00000f36:    1c49        I.      ADDS     r1,r1,#1
        0x00000f38:    9101        ..      STR      r1,[sp,#4]
        0x00000f3a:    9a12        ..      LDR      r2,[sp,#0x48]
        0x00000f3c:    9911        ..      LDR      r1,[sp,#0x44]
        0x00000f3e:    4790        .G      BLX      r2
        0x00000f40:    1e6d        m.      SUBS     r5,r5,#1
        0x00000f42:    d2f5        ..      BCS      0xf30 ; _printf_core + 304
        0x00000f44:    e0b2        ..      B        0x10ac ; _printf_core + 684
        0x00000f46:    200a        .       MOVS     r0,#0xa
        0x00000f48:    9002        ..      STR      r0,[sp,#8]
        0x00000f4a:    2100        .!      MOVS     r1,#0
        0x00000f4c:    0268        h.      LSLS     r0,r5,#9
        0x00000f4e:    0f40        @.      LSRS     r0,r0,#29
        0x00000f50:    9103        ..      STR      r1,[sp,#0xc]
        0x00000f52:    2802        .(      CMP      r0,#2
        0x00000f54:    d00c        ..      BEQ      0xf70 ; _printf_core + 368
        0x00000f56:    cf01        ..      LDM      r7!,{r0}
        0x00000f58:    17c1        ..      ASRS     r1,r0,#31
        0x00000f5a:    4684        .F      MOV      r12,r0
        0x00000f5c:    2900        .)      CMP      r1,#0
        0x00000f5e:    da0d        ..      BGE      0xf7c ; _printf_core + 380
        0x00000f60:    4662        bF      MOV      r2,r12
        0x00000f62:    4608        .F      MOV      r0,r1
        0x00000f64:    4252        RB      RSBS     r2,r2,#0
        0x00000f66:    2100        .!      MOVS     r1,#0
        0x00000f68:    4181        .A      SBCS     r1,r1,r0
        0x00000f6a:    4694        .F      MOV      r12,r2
        0x00000f6c:    202d        -       MOVS     r0,#0x2d
        0x00000f6e:    e008        ..      B        0xf82 ; _printf_core + 386
        0x00000f70:    1dff        ..      ADDS     r7,r7,#7
        0x00000f72:    08ff        ..      LSRS     r7,r7,#3
        0x00000f74:    00ff        ..      LSLS     r7,r7,#3
        0x00000f76:    cf03        ..      LDM      r7!,{r0,r1}
        0x00000f78:    4684        .F      MOV      r12,r0
        0x00000f7a:    e7ef        ..      B        0xf5c ; _printf_core + 348
        0x00000f7c:    0528        (.      LSLS     r0,r5,#20
        0x00000f7e:    d504        ..      BPL      0xf8a ; _printf_core + 394
        0x00000f80:    202b        +       MOVS     r0,#0x2b
        0x00000f82:    466a        jF      MOV      r2,sp
        0x00000f84:    7410        .t      STRB     r0,[r2,#0x10]
        0x00000f86:    2001        .       MOVS     r0,#1
        0x00000f88:    e03c        <.      B        0x1004 ; _printf_core + 516
        0x00000f8a:    07e8        ..      LSLS     r0,r5,#31
        0x00000f8c:    d03a        :.      BEQ      0x1004 ; _printf_core + 516
        0x00000f8e:    2020                MOVS     r0,#0x20
        0x00000f90:    e7f7        ..      B        0xf82 ; _printf_core + 386
        0x00000f92:    200a        .       MOVS     r0,#0xa
        0x00000f94:    e000        ..      B        0xf98 ; _printf_core + 408
        0x00000f96:    2010        .       MOVS     r0,#0x10
        0x00000f98:    2100        .!      MOVS     r1,#0
        0x00000f9a:    9103        ..      STR      r1,[sp,#0xc]
        0x00000f9c:    9002        ..      STR      r0,[sp,#8]
        0x00000f9e:    e007        ..      B        0xfb0 ; _printf_core + 432
        0x00000fa0:    2010        .       MOVS     r0,#0x10
        0x00000fa2:    9002        ..      STR      r0,[sp,#8]
        0x00000fa4:    2100        .!      MOVS     r1,#0
        0x00000fa6:    2004        .       MOVS     r0,#4
        0x00000fa8:    4305        .C      ORRS     r5,r5,r0
        0x00000faa:    2008        .       MOVS     r0,#8
        0x00000fac:    9103        ..      STR      r1,[sp,#0xc]
        0x00000fae:    9000        ..      STR      r0,[sp,#0]
        0x00000fb0:    0268        h.      LSLS     r0,r5,#9
        0x00000fb2:    0f40        @.      LSRS     r0,r0,#29
        0x00000fb4:    2802        .(      CMP      r0,#2
        0x00000fb6:    d010        ..      BEQ      0xfda ; _printf_core + 474
        0x00000fb8:    cf01        ..      LDM      r7!,{r0}
        0x00000fba:    2100        .!      MOVS     r1,#0
        0x00000fbc:    4684        .F      MOV      r12,r0
        0x00000fbe:    2000        .       MOVS     r0,#0
        0x00000fc0:    900d        ..      STR      r0,[sp,#0x34]
        0x00000fc2:    0728        (.      LSLS     r0,r5,#28
        0x00000fc4:    d51f        ..      BPL      0x1006 ; _printf_core + 518
        0x00000fc6:    4670        pF      MOV      r0,lr
        0x00000fc8:    2870        p(      CMP      r0,#0x70
        0x00000fca:    d00c        ..      BEQ      0xfe6 ; _printf_core + 486
        0x00000fcc:    9a02        ..      LDR      r2,[sp,#8]
        0x00000fce:    2010        .       MOVS     r0,#0x10
        0x00000fd0:    9b03        ..      LDR      r3,[sp,#0xc]
        0x00000fd2:    4042        B@      EORS     r2,r2,r0
        0x00000fd4:    431a        .C      ORRS     r2,r2,r3
        0x00000fd6:    d00c        ..      BEQ      0xff2 ; _printf_core + 498
        0x00000fd8:    e015        ..      B        0x1006 ; _printf_core + 518
        0x00000fda:    1dff        ..      ADDS     r7,r7,#7
        0x00000fdc:    08ff        ..      LSRS     r7,r7,#3
        0x00000fde:    00ff        ..      LSLS     r7,r7,#3
        0x00000fe0:    cf03        ..      LDM      r7!,{r0,r1}
        0x00000fe2:    4684        .F      MOV      r12,r0
        0x00000fe4:    e7eb        ..      B        0xfbe ; _printf_core + 446
        0x00000fe6:    2040        @       MOVS     r0,#0x40
        0x00000fe8:    466a        jF      MOV      r2,sp
        0x00000fea:    7410        .t      STRB     r0,[r2,#0x10]
        0x00000fec:    2001        .       MOVS     r0,#1
        0x00000fee:    900d        ..      STR      r0,[sp,#0x34]
        0x00000ff0:    e00c        ..      B        0x100c ; _printf_core + 524
        0x00000ff2:    4660        `F      MOV      r0,r12
        0x00000ff4:    4308        .C      ORRS     r0,r0,r1
        0x00000ff6:    d006        ..      BEQ      0x1006 ; _printf_core + 518
        0x00000ff8:    2030        0       MOVS     r0,#0x30
        0x00000ffa:    466a        jF      MOV      r2,sp
        0x00000ffc:    7410        .t      STRB     r0,[r2,#0x10]
        0x00000ffe:    4670        pF      MOV      r0,lr
        0x00001000:    7450        Pt      STRB     r0,[r2,#0x11]
        0x00001002:    2002        .       MOVS     r0,#2
        0x00001004:    900d        ..      STR      r0,[sp,#0x34]
        0x00001006:    4670        pF      MOV      r0,lr
        0x00001008:    2858        X(      CMP      r0,#0x58
        0x0000100a:    d004        ..      BEQ      0x1016 ; _printf_core + 534
        0x0000100c:    a029        ).      ADR      r0,{pc}+0xa8 ; 0x10b4
        0x0000100e:    9001        ..      STR      r0,[sp,#4]
        0x00001010:    a80d        ..      ADD      r0,sp,#0x34
        0x00001012:    900e        ..      STR      r0,[sp,#0x38]
        0x00001014:    e00d        ..      B        0x1032 ; _printf_core + 562
        0x00001016:    a02c        ,.      ADR      r0,{pc}+0xb2 ; 0x10c8
        0x00001018:    e7f9        ..      B        0x100e ; _printf_core + 526
        0x0000101a:    4660        `F      MOV      r0,r12
        0x0000101c:    9b03        ..      LDR      r3,[sp,#0xc]
        0x0000101e:    9a02        ..      LDR      r2,[sp,#8]
        0x00001020:    f7fff876    ..v.    BL       __aeabi_uldivmod ; 0x110
        0x00001024:    9b01        ..      LDR      r3,[sp,#4]
        0x00001026:    4684        .F      MOV      r12,r0
        0x00001028:    5c9b        .\      LDRB     r3,[r3,r2]
        0x0000102a:    9a0e        ..      LDR      r2,[sp,#0x38]
        0x0000102c:    1e52        R.      SUBS     r2,r2,#1
        0x0000102e:    920e        ..      STR      r2,[sp,#0x38]
        0x00001030:    7013        .p      STRB     r3,[r2,#0]
        0x00001032:    4660        `F      MOV      r0,r12
        0x00001034:    4308        .C      ORRS     r0,r0,r1
        0x00001036:    d1f0        ..      BNE      0x101a ; _printf_core + 538
        0x00001038:    980e        ..      LDR      r0,[sp,#0x38]
        0x0000103a:    a905        ..      ADD      r1,sp,#0x14
        0x0000103c:    1a08        ..      SUBS     r0,r1,r0
        0x0000103e:    3020         0      ADDS     r0,r0,#0x20
        0x00001040:    9001        ..      STR      r0,[sp,#4]
        0x00001042:    0768        h.      LSLS     r0,r5,#29
        0x00001044:    d501        ..      BPL      0x104a ; _printf_core + 586
        0x00001046:    9800        ..      LDR      r0,[sp,#0]
        0x00001048:    e001        ..      B        0x104e ; _printf_core + 590
        0x0000104a:    2001        .       MOVS     r0,#1
        0x0000104c:    9000        ..      STR      r0,[sp,#0]
        0x0000104e:    9901        ..      LDR      r1,[sp,#4]
        0x00001050:    4288        .B      CMP      r0,r1
        0x00001052:    dd03        ..      BLE      0x105c ; _printf_core + 604
        0x00001054:    4601        .F      MOV      r1,r0
        0x00001056:    9801        ..      LDR      r0,[sp,#4]
        0x00001058:    1a08        ..      SUBS     r0,r1,r0
        0x0000105a:    e000        ..      B        0x105e ; _printf_core + 606
        0x0000105c:    2000        .       MOVS     r0,#0
        0x0000105e:    2500        .%      MOVS     r5,#0
        0x00001060:    9000        ..      STR      r0,[sp,#0]
        0x00001062:    e006        ..      B        0x1072 ; _printf_core + 626
        0x00001064:    a804        ..      ADD      r0,sp,#0x10
        0x00001066:    9a12        ..      LDR      r2,[sp,#0x48]
        0x00001068:    5d40        @]      LDRB     r0,[r0,r5]
        0x0000106a:    9911        ..      LDR      r1,[sp,#0x44]
        0x0000106c:    4790        .G      BLX      r2
        0x0000106e:    1c6d        m.      ADDS     r5,r5,#1
        0x00001070:    1c76        v.      ADDS     r6,r6,#1
        0x00001072:    980d        ..      LDR      r0,[sp,#0x34]
        0x00001074:    4285        .B      CMP      r5,r0
        0x00001076:    dbf5        ..      BLT      0x1064 ; _printf_core + 612
        0x00001078:    e004        ..      B        0x1084 ; _printf_core + 644
        0x0000107a:    9a12        ..      LDR      r2,[sp,#0x48]
        0x0000107c:    2030        0       MOVS     r0,#0x30
        0x0000107e:    9911        ..      LDR      r1,[sp,#0x44]
        0x00001080:    4790        .G      BLX      r2
        0x00001082:    1c76        v.      ADDS     r6,r6,#1
        0x00001084:    9900        ..      LDR      r1,[sp,#0]
        0x00001086:    1e48        H.      SUBS     r0,r1,#1
        0x00001088:    9000        ..      STR      r0,[sp,#0]
        0x0000108a:    2900        .)      CMP      r1,#0
        0x0000108c:    dcf5        ..      BGT      0x107a ; _printf_core + 634
        0x0000108e:    e008        ..      B        0x10a2 ; _printf_core + 674
        0x00001090:    980e        ..      LDR      r0,[sp,#0x38]
        0x00001092:    990e        ..      LDR      r1,[sp,#0x38]
        0x00001094:    7800        .x      LDRB     r0,[r0,#0]
        0x00001096:    1c49        I.      ADDS     r1,r1,#1
        0x00001098:    910e        ..      STR      r1,[sp,#0x38]
        0x0000109a:    9a12        ..      LDR      r2,[sp,#0x48]
        0x0000109c:    9911        ..      LDR      r1,[sp,#0x44]
        0x0000109e:    4790        .G      BLX      r2
        0x000010a0:    1c76        v.      ADDS     r6,r6,#1
        0x000010a2:    9901        ..      LDR      r1,[sp,#4]
        0x000010a4:    1e48        H.      SUBS     r0,r1,#1
        0x000010a6:    9001        ..      STR      r0,[sp,#4]
        0x000010a8:    2900        .)      CMP      r1,#0
        0x000010aa:    dcf1        ..      BGT      0x1090 ; _printf_core + 656
        0x000010ac:    1c64        d.      ADDS     r4,r4,#1
        0x000010ae:    e6b4        ..      B        0xe1a ; _printf_core + 26
    $d
        0x000010b0:    00012809    .(..    DCD    75785
        0x000010b4:    33323130    0123    DCD    858927408
        0x000010b8:    37363534    4567    DCD    926299444
        0x000010bc:    62613938    89ab    DCD    1650538808
        0x000010c0:    66656463    cdef    DCD    1717920867
        0x000010c4:    00000000    ....    DCD    0
        0x000010c8:    33323130    0123    DCD    858927408
        0x000010cc:    37363534    4567    DCD    926299444
        0x000010d0:    42413938    89AB    DCD    1111570744
        0x000010d4:    46454443    CDEF    DCD    1178944579
        0x000010d8:    00000000    ....    DCD    0
    $t
    i.delay
    delay
        0x000010dc:    b500        ..      PUSH     {lr}
        0x000010de:    4602        .F      MOV      r2,r0
        0x000010e0:    2000        .       MOVS     r0,#0
        0x000010e2:    f7fffe17    ....    BL       Set_SysTick_CTRL ; 0xd14
        0x000010e6:    4610        .F      MOV      r0,r2
        0x000010e8:    f7fffe1a    ....    BL       Set_SysTick_LOAD ; 0xd20
        0x000010ec:    2000        .       MOVS     r0,#0
        0x000010ee:    f7fffe1d    ....    BL       Set_SysTick_VALUE ; 0xd2c
        0x000010f2:    2007        .       MOVS     r0,#7
        0x000010f4:    f7fffe0e    ....    BL       Set_SysTick_CTRL ; 0xd14
        0x000010f8:    bf30        0.      WFI      
        0x000010fa:    bd00        ..      POP      {pc}
    i.fputc
    fputc
        0x000010fc:    b570        p.      PUSH     {r4-r6,lr}
        0x000010fe:    4604        .F      MOV      r4,r0
        0x00001100:    460d        .F      MOV      r5,r1
        0x00001102:    2c0a        .,      CMP      r4,#0xa
        0x00001104:    d103        ..      BNE      0x110e ; fputc + 18
        0x00001106:    210d        .!      MOVS     r1,#0xd
        0x00001108:    0740        @.      LSLS     r0,r0,#29
        0x0000110a:    f000f88d    ....    BL       uart_SendChar ; 0x1228
        0x0000110e:    b2e1        ..      UXTB     r1,r4
        0x00001110:    2001        .       MOVS     r0,#1
        0x00001112:    0780        ..      LSLS     r0,r0,#30
        0x00001114:    f000f888    ....    BL       uart_SendChar ; 0x1228
        0x00001118:    4620         F      MOV      r0,r4
        0x0000111a:    bd70        p.      POP      {r4-r6,pc}
    i.main
    main
        0x0000111c:    b51f        ..      PUSH     {r0-r4,lr}
        0x0000111e:    a522        ".      ADR      r5,{pc}+0x8a ; 0x11a8
        0x00001120:    2064        d       MOVS     r0,#0x64
        0x00001122:    f7fffdb9    ....    BL       SPI_Init ; 0xc98
        0x00001126:    f7fffd99    ....    BL       SPI_Flash_ReadSR ; 0xc5c
        0x0000112a:    4606        .F      MOV      r6,r0
        0x0000112c:    f7fffd74    ..t.    BL       SPI_Flash_ReadID ; 0xc18
        0x00001130:    4607        .F      MOV      r7,r0
        0x00001132:    f7fffd37    ..7.    BL       SPI_Flash_Erase_Chip ; 0xba4
        0x00001136:    221e        ."      MOVS     r2,#0x1e
        0x00001138:    2106        .!      MOVS     r1,#6
        0x0000113a:    4620         F      MOV      r0,r4
        0x0000113c:    f7fffd46    ..F.    BL       SPI_Flash_Read ; 0xbcc
        0x00001140:    200f        .       MOVS     r0,#0xf
        0x00001142:    4923        #I      LDR      r1,[pc,#140] ; [0x11d0] = 0x40002000
        0x00001144:    6048        H`      STR      r0,[r1,#4]
        0x00001146:    2003        .       MOVS     r0,#3
        0x00001148:    f7fffd0c    ....    BL       NVIC_EnableIRQ ; 0xb64
        0x0000114c:    2004        .       MOVS     r0,#4
        0x0000114e:    f7fffd09    ....    BL       NVIC_EnableIRQ ; 0xb64
        0x00001152:    2005        .       MOVS     r0,#5
        0x00001154:    f7fffd06    ....    BL       NVIC_EnableIRQ ; 0xb64
        0x00001158:    2006        .       MOVS     r0,#6
        0x0000115a:    f7fffd03    ....    BL       NVIC_EnableIRQ ; 0xb64
        0x0000115e:    2000        .       MOVS     r0,#0
        0x00001160:    9000        ..      STR      r0,[sp,#0]
        0x00001162:    9001        ..      STR      r0,[sp,#4]
        0x00001164:    9002        ..      STR      r0,[sp,#8]
        0x00001166:    2301        .#      MOVS     r3,#1
        0x00001168:    461a        .F      MOV      r2,r3
        0x0000116a:    21ff        .!      MOVS     r1,#0xff
        0x0000116c:    31b3        .1      ADDS     r1,r1,#0xb3
        0x0000116e:    9003        ..      STR      r0,[sp,#0xc]
        0x00001170:    0748        H.      LSLS     r0,r1,#29
        0x00001172:    f000f864    ..d.    BL       uart_init ; 0x123e
        0x00001176:    463a        :F      MOV      r2,r7
        0x00001178:    4631        1F      MOV      r1,r6
        0x0000117a:    a016        ..      ADR      r0,{pc}+0x5a ; 0x11d4
        0x0000117c:    f7fffe12    ....    BL       __0printf$5 ; 0xda4
        0x00001180:    4629        )F      MOV      r1,r5
        0x00001182:    a01a        ..      ADR      r0,{pc}+0x6a ; 0x11ec
        0x00001184:    f7fffe0e    ....    BL       __0printf$5 ; 0xda4
        0x00001188:    4621        !F      MOV      r1,r4
        0x0000118a:    a01a        ..      ADR      r0,{pc}+0x6a ; 0x11f4
        0x0000118c:    f7fffe0a    ....    BL       __0printf$5 ; 0xda4
        0x00001190:    f7fff8fc    ....    BL       LCD_Init ; 0x38c
        0x00001194:    23ff        .#      MOVS     r3,#0xff
        0x00001196:    3341        A3      ADDS     r3,r3,#0x41
        0x00001198:    22f0        ."      MOVS     r2,#0xf0
        0x0000119a:    2100        .!      MOVS     r1,#0
        0x0000119c:    4608        .F      MOV      r0,r1
        0x0000119e:    9400        ..      STR      r4,[sp,#0]
        0x000011a0:    f7fffc56    ..V.    BL       LCD_ShowString ; 0xa50
        0x000011a4:    bf00        ..      NOP      
        0x000011a6:    e7fe        ..      B        0x11a6 ; main + 138
    $d
        0x000011a8:    62206f74    to b    DCD    1646292852
        0x000011ac:    726f2c65    e,or    DCD    1919888485
        0x000011b0:    746f6e20     not    DCD    1953459744
        0x000011b4:    206f7420     to     DCD    544175136
        0x000011b8:    743f6562    be?t    DCD    1950311778
        0x000011bc:    20746168    hat     DCD    544498024
        0x000011c0:    61207369    is a    DCD    1629516649
        0x000011c4:    65757120     que    DCD    1702195488
        0x000011c8:    6f697473    stio    DCD    1869182067
        0x000011cc:    0000216e    n!..    DCD    8558
        0x000011d0:    40002000    . .@    DCD    1073750016
        0x000011d4:    5f697073    spi_    DCD    1600745587
        0x000011d8:    253d7273    sr=%    DCD    624783987
        0x000011dc:    6c662c78    x,fl    DCD    1818635384
        0x000011e0:    5f687361    ash_    DCD    1600680801
        0x000011e4:    253d6469    id=%    DCD    624780393
        0x000011e8:    00000a78    x...    DCD    2680
        0x000011ec:    73253d70    p=%s    DCD    1931820400
        0x000011f0:    0000000a    ....    DCD    10
        0x000011f4:    5f697073    spi_    DCD    1600745587
        0x000011f8:    625f7872    rx_b    DCD    1650423922
        0x000011fc:    65666675    uffe    DCD    1701209717
        0x00001200:    73253d72    r=%s    DCD    1931820402
        0x00001204:    0000000a    ....    DCD    10
    $t
    i.photo
    photo
        0x00001208:    b500        ..      PUSH     {lr}
        0x0000120a:    2001        .       MOVS     r0,#1
        0x0000120c:    f7fffd7c    ..|.    BL       Set_CAMERA_DATA_STATE ; 0xd08
        0x00001210:    bf00        ..      NOP      
        0x00001212:    f7fffcb3    ....    BL       Read_CAMERA_DATA_STATE ; 0xb7c
        0x00001216:    2800        .(      CMP      r0,#0
        0x00001218:    d1fb        ..      BNE      0x1212 ; photo + 10
        0x0000121a:    bd00        ..      POP      {pc}
    i.uart_ClearRxIRQ
    uart_ClearRxIRQ
        0x0000121c:    2102        .!      MOVS     r1,#2
        0x0000121e:    60c1        .`      STR      r1,[r0,#0xc]
        0x00001220:    4770        pG      BX       lr
    i.uart_ClearTxIRQ
    uart_ClearTxIRQ
        0x00001222:    2101        .!      MOVS     r1,#1
        0x00001224:    60c1        .`      STR      r1,[r0,#0xc]
        0x00001226:    4770        pG      BX       lr
    i.uart_SendChar
    uart_SendChar
        0x00001228:    e005        ..      B        0x1236 ; uart_SendChar + 14
        0x0000122a:    6842        Bh      LDR      r2,[r0,#4]
        0x0000122c:    07d2        ..      LSLS     r2,r2,#31
        0x0000122e:    0fd2        ..      LSRS     r2,r2,#31
        0x00001230:    2a00        .*      CMP      r2,#0
        0x00001232:    d100        ..      BNE      0x1236 ; uart_SendChar + 14
        0x00001234:    e000        ..      B        0x1238 ; uart_SendChar + 16
        0x00001236:    e7f8        ..      B        0x122a ; uart_SendChar + 2
        0x00001238:    bf00        ..      NOP      
        0x0000123a:    6001        .`      STR      r1,[r0,#0]
        0x0000123c:    4770        pG      BX       lr
    i.uart_init
    uart_init
        0x0000123e:    b5f0        ..      PUSH     {r4-r7,lr}
        0x00001240:    4604        .F      MOV      r4,r0
        0x00001242:    9d05        ..      LDR      r5,[sp,#0x14]
        0x00001244:    2600        .&      MOVS     r6,#0
        0x00001246:    2a00        .*      CMP      r2,#0
        0x00001248:    d001        ..      BEQ      0x124e ; uart_init + 16
        0x0000124a:    2001        .       MOVS     r0,#1
        0x0000124c:    4306        .C      ORRS     r6,r6,r0
        0x0000124e:    2b00        .+      CMP      r3,#0
        0x00001250:    d001        ..      BEQ      0x1256 ; uart_init + 24
        0x00001252:    2002        .       MOVS     r0,#2
        0x00001254:    4306        .C      ORRS     r6,r6,r0
        0x00001256:    2d00        .-      CMP      r5,#0
        0x00001258:    d001        ..      BEQ      0x125e ; uart_init + 32
        0x0000125a:    2004        .       MOVS     r0,#4
        0x0000125c:    4306        .C      ORRS     r6,r6,r0
        0x0000125e:    9806        ..      LDR      r0,[sp,#0x18]
        0x00001260:    2800        .(      CMP      r0,#0
        0x00001262:    d001        ..      BEQ      0x1268 ; uart_init + 42
        0x00001264:    2008        .       MOVS     r0,#8
        0x00001266:    4306        .C      ORRS     r6,r6,r0
        0x00001268:    9807        ..      LDR      r0,[sp,#0x1c]
        0x0000126a:    2800        .(      CMP      r0,#0
        0x0000126c:    d001        ..      BEQ      0x1272 ; uart_init + 52
        0x0000126e:    2010        .       MOVS     r0,#0x10
        0x00001270:    4306        .C      ORRS     r6,r6,r0
        0x00001272:    9808        ..      LDR      r0,[sp,#0x20]
        0x00001274:    2800        .(      CMP      r0,#0
        0x00001276:    d001        ..      BEQ      0x127c ; uart_init + 62
        0x00001278:    2020                MOVS     r0,#0x20
        0x0000127a:    4306        .C      ORRS     r6,r6,r0
        0x0000127c:    2000        .       MOVS     r0,#0
        0x0000127e:    60a0        .`      STR      r0,[r4,#8]
        0x00001280:    6121        !a      STR      r1,[r4,#0x10]
        0x00001282:    60a6        .`      STR      r6,[r4,#8]
        0x00001284:    6860        `h      LDR      r0,[r4,#4]
        0x00001286:    270c        .'      MOVS     r7,#0xc
        0x00001288:    4038        8@      ANDS     r0,r0,r7
        0x0000128a:    2800        .(      CMP      r0,#0
        0x0000128c:    d001        ..      BEQ      0x1292 ; uart_init + 84
        0x0000128e:    2001        .       MOVS     r0,#1
        0x00001290:    bdf0        ..      POP      {r4-r7,pc}
        0x00001292:    2000        .       MOVS     r0,#0
        0x00001294:    e7fc        ..      B        0x1290 ; uart_init + 82
    $d.realdata
    .constdata
    asc2_1608
        0x00001296:    0000        ..      DCW    0
        0x00001298:    00000000    ....    DCD    0
        0x0000129c:    00000000    ....    DCD    0
        0x000012a0:    00000000    ....    DCD    0
        0x000012a4:    00000000    ....    DCD    0
        0x000012a8:    00000000    ....    DCD    0
        0x000012ac:    0c00cc1f    ....    DCD    201378847
        0x000012b0:    00000000    ....    DCD    0
        0x000012b4:    00000000    ....    DCD    0
        0x000012b8:    00300008    ..0.    DCD    3145736
        0x000012bc:    00080060    `...    DCD    524384
        0x000012c0:    00600030    0.`.    DCD    6291504
        0x000012c4:    20020000    ...     DCD    537001984
        0x000012c8:    201efc03    ...     DCD    538901507
        0x000012cc:    fc032002    . ..    DCD    4228063234
        0x000012d0:    2002201e    . .     DCD    537010206
        0x000012d4:    00000000    ....    DCD    0
        0x000012d8:    0411180e    ....    DCD    68229134
        0x000012dc:    8410ff3f    ?...    DCD    2215706431
        0x000012e0:    0000780c    .x..    DCD    30732
        0x000012e4:    000f0000    ....    DCD    983040
        0x000012e8:    380f8410    ...8    DCD    940540944
        0x000012ec:    7807c000    ...x    DCD    2013773824
        0x000012f0:    78008418    ...x    DCD    2013299736
        0x000012f4:    78000000    ...x    DCD    2013265920
        0x000012f8:    c410840f    ....    DCD    3289416719
        0x000012fc:    980e2411    .$..    DCD    2551063569
        0x00001300:    8400e400    ....    DCD    2214650880
        0x00001304:    00080800    ....    DCD    526336
        0x00001308:    00700068    h.p.    DCD    7340136
        0x0000130c:    00000000    ....    DCD    0
        0x00001310:    00000000    ....    DCD    0
        0x00001314:    00000000    ....    DCD    0
        0x00001318:    00000000    ....    DCD    0
        0x0000131c:    1818e007    ....    DCD    404283399
        0x00001320:    02400420     .@.    DCD    37749792
        0x00001324:    00000000    ....    DCD    0
        0x00001328:    04200240    @. .    DCD    69206592
        0x0000132c:    e0071818    ....    DCD    3758561304
        0x00001330:    00000000    ....    DCD    0
        0x00001334:    40020000    ...@    DCD    1073872896
        0x00001338:    80014002    .@..    DCD    2147565570
        0x0000133c:    8001f00f    ....    DCD    2147610639
        0x00001340:    40024002    .@.@    DCD    1073889282
        0x00001344:    80000000    ....    DCD    2147483648
        0x00001348:    80008000    ....    DCD    2147516416
        0x0000134c:    8000f80f    ....    DCD    2147547151
        0x00001350:    80008000    ....    DCD    2147516416
        0x00001354:    01000000    ....    DCD    16777216
        0x00001358:    0e000d00    ....    DCD    234884352
        0x0000135c:    00000000    ....    DCD    0
        0x00001360:    00000000    ....    DCD    0
        0x00001364:    00000000    ....    DCD    0
        0x00001368:    80008000    ....    DCD    2147516416
        0x0000136c:    80008000    ....    DCD    2147516416
        0x00001370:    80008000    ....    DCD    2147516416
        0x00001374:    00008000    ....    DCD    32768
        0x00001378:    0c000c00    ....    DCD    201329664
        0x0000137c:    00000000    ....    DCD    0
        0x00001380:    00000000    ....    DCD    0
        0x00001384:    00000000    ....    DCD    0
        0x00001388:    18000600    ....    DCD    402654720
        0x0000138c:    80016000    .`..    DCD    2147573760
        0x00001390:    00180006    ....    DCD    1572870
        0x00001394:    00000020     ...    DCD    32
        0x00001398:    0808f007    ....    DCD    134803463
        0x0000139c:    04100410    ....    DCD    68158480
        0x000013a0:    f0070808    ....    DCD    4026992648
        0x000013a4:    00000000    ....    DCD    0
        0x000013a8:    04080408    ....    DCD    67634184
        0x000013ac:    0400fc1f    ....    DCD    67173407
        0x000013b0:    00000400    ....    DCD    1024
        0x000013b4:    00000000    ....    DCD    0
        0x000013b8:    14100c0e    ....    DCD    336595982
        0x000013bc:    44102410    .$.D    DCD    1141908496
        0x000013c0:    0c0e8411    ....    DCD    202277905
        0x000013c4:    00000000    ....    DCD    0
        0x000013c8:    0410180c    ....    DCD    68163596
        0x000013cc:    04110411    ....    DCD    68224017
        0x000013d0:    700c8812    ...p    DCD    1879869458
        0x000013d4:    00000000    ....    DCD    0
        0x000013d8:    2003e000    ...     DCD    537124864
        0x000013dc:    24082404    .$.$    DCD    604513284
        0x000013e0:    2400fc1f    ...$    DCD    604044319
        0x000013e4:    00000000    ....    DCD    0
        0x000013e8:    8410981f    ....    DCD    2215680031
        0x000013ec:    04110411    ....    DCD    68224017
        0x000013f0:    70108810    ...p    DCD    1880131600
        0x000013f4:    00000000    ....    DCD    0
        0x000013f8:    8808f007    ....    DCD    2282287111
        0x000013fc:    04110411    ....    DCD    68224017
        0x00001400:    70008818    ...p    DCD    1879083032
        0x00001404:    00000000    ....    DCD    0
        0x00001408:    0010001c    ....    DCD    1048604
        0x0000140c:    0013fc10    ....    DCD    1309712
        0x00001410:    0010001c    ....    DCD    1048604
        0x00001414:    00000000    ....    DCD    0
        0x00001418:    4411380e    .8.D    DCD    1141979150
        0x0000141c:    84108410    ....    DCD    2215674896
        0x00001420:    380e4411    .D.8    DCD    940459025
        0x00001424:    00000000    ....    DCD    0
        0x00001428:    8c080007    ....    DCD    2349334535
        0x0000142c:    44104410    .D.D    DCD    1141916688
        0x00001430:    f0078808    ....    DCD    4027025416
        0x00001434:    00000000    ....    DCD    0
        0x00001438:    00000000    ....    DCD    0
        0x0000143c:    0c030c03    ....    DCD    201526275
        0x00001440:    00000000    ....    DCD    0
        0x00001444:    00000000    ....    DCD    0
        0x00001448:    01000000    ....    DCD    16777216
        0x0000144c:    00000601    ....    DCD    1537
        0x00001450:    00000000    ....    DCD    0
        0x00001454:    00000000    ....    DCD    0
        0x00001458:    40018000    ...@    DCD    1073840128
        0x0000145c:    10042002    . ..    DCD    268705794
        0x00001460:    04100808    ....    DCD    68159496
        0x00001464:    20020000    ...     DCD    537001984
        0x00001468:    20022002    . .     DCD    537010178
        0x0000146c:    20022002    . .     DCD    537010178
        0x00001470:    20022002    . .     DCD    537010178
        0x00001474:    00000000    ....    DCD    0
        0x00001478:    08080410    ....    DCD    134743056
        0x0000147c:    20021004    ...     DCD    537006084
        0x00001480:    80004001    .@..    DCD    2147500033
        0x00001484:    00000000    ....    DCD    0
        0x00001488:    0012000e    ....    DCD    1179662
        0x0000148c:    6c100c10    ...l    DCD    1812990992
        0x00001490:    000f8010    ....    DCD    1015824
        0x00001494:    e0030000    ....    DCD    3758292992
        0x00001498:    e413180c    ....    DCD    3826456588
        0x0000149c:    c4172414    .$..    DCD    3289850900
        0x000014a0:    d0072808    .(..    DCD    3490129928
        0x000014a4:    04000000    ....    DCD    67108864
        0x000014a8:    c4033c00    .<..    DCD    3288546304
        0x000014ac:    4007401c    .@.@    DCD    1074216988
        0x000014b0:    1c00e400    ....    DCD    469820416
        0x000014b4:    04100400    ....    DCD    68158464
        0x000014b8:    0411fc1f    ....    DCD    68287519
        0x000014bc:    04110411    ....    DCD    68224017
        0x000014c0:    7000880e    ...p    DCD    1879083022
        0x000014c4:    e0030000    ....    DCD    3758292992
        0x000014c8:    0410180c    ....    DCD    68163596
        0x000014cc:    04100410    ....    DCD    68158480
        0x000014d0:    101c0810    ....    DCD    270272528
        0x000014d4:    04100000    ....    DCD    68157440
        0x000014d8:    0410fc1f    ....    DCD    68221983
        0x000014dc:    04100410    ....    DCD    68158480
        0x000014e0:    f0070808    ....    DCD    4026992648
        0x000014e4:    04100000    ....    DCD    68157440
        0x000014e8:    0411fc1f    ....    DCD    68287519
        0x000014ec:    c4170411    ....    DCD    3289842705
        0x000014f0:    18080410    ....    DCD    403178512
        0x000014f4:    04100000    ....    DCD    68157440
        0x000014f8:    0411fc1f    ....    DCD    68287519
        0x000014fc:    c0170011    ....    DCD    3222732817
        0x00001500:    00080010    ....    DCD    524304
        0x00001504:    e0030000    ....    DCD    3758292992
        0x00001508:    0410180c    ....    DCD    68163596
        0x0000150c:    44100410    ...D    DCD    1141900304
        0x00001510:    4000781c    .x.@    DCD    1073772572
        0x00001514:    04100000    ....    DCD    68157440
        0x00001518:    8410fc1f    ....    DCD    2215705631
        0x0000151c:    80008000    ....    DCD    2147516416
        0x00001520:    fc1f8410    ....    DCD    4229923856
        0x00001524:    00000410    ....    DCD    1040
        0x00001528:    04100410    ....    DCD    68158480
        0x0000152c:    0410fc1f    ....    DCD    68221983
        0x00001530:    00000410    ....    DCD    1040
        0x00001534:    03000000    ....    DCD    50331648
        0x00001538:    01100100    ....    DCD    17826048
        0x0000153c:    fe1f0110    ....    DCD    4263444752
        0x00001540:    00100010    ....    DCD    1048592
        0x00001544:    04100000    ....    DCD    68157440
        0x00001548:    0411fc1f    ....    DCD    68287519
        0x0000154c:    64148003    ...d    DCD    1679065091
        0x00001550:    04101c18    ....    DCD    68164632
        0x00001554:    04100000    ....    DCD    68157440
        0x00001558:    0410fc1f    ....    DCD    68221983
        0x0000155c:    04000400    ....    DCD    67109888
        0x00001560:    0c000400    ....    DCD    201327616
        0x00001564:    04100000    ....    DCD    68157440
        0x00001568:    001ffc1f    ....    DCD    2096159
        0x0000156c:    001ffc00    ....    DCD    2096128
        0x00001570:    0410fc1f    ....    DCD    68221983
        0x00001574:    04100000    ....    DCD    68157440
        0x00001578:    040cfc1f    ....    DCD    67959839
        0x0000157c:    e0000003    ....    DCD    3758096387
        0x00001580:    fc1f1810    ....    DCD    4229896208
        0x00001584:    f0070010    ....    DCD    4026990608
        0x00001588:    04100808    ....    DCD    68159496
        0x0000158c:    04100410    ....    DCD    68158480
        0x00001590:    f0070808    ....    DCD    4026992648
        0x00001594:    04100000    ....    DCD    68157440
        0x00001598:    8410fc1f    ....    DCD    2215705631
        0x0000159c:    80108010    ....    DCD    2148565008
        0x000015a0:    000f8010    ....    DCD    1015824
        0x000015a4:    f0070000    ....    DCD    4026990592
        0x000015a8:    24101808    ...$    DCD    605034504
        0x000015ac:    1c102410    .$..    DCD    470819856
        0x000015b0:    f2070a08    ....    DCD    4060547592
        0x000015b4:    04100000    ....    DCD    68157440
        0x000015b8:    0411fc1f    ....    DCD    68287519
        0x000015bc:    c0110011    ....    DCD    3222339601
        0x000015c0:    0c0e3011    .0..    DCD    202256401
        0x000015c4:    00000400    ....    DCD    1024
        0x000015c8:    04111c0e    ....    DCD    68230158
        0x000015cc:    84108410    ....    DCD    2215674896
        0x000015d0:    381c4410    .D.8    DCD    941376528
        0x000015d4:    00180000    ....    DCD    1572864
        0x000015d8:    04100010    ....    DCD    68157456
        0x000015dc:    0410fc1f    ....    DCD    68221983
        0x000015e0:    00180010    ....    DCD    1572880
        0x000015e4:    00100000    ....    DCD    1048576
        0x000015e8:    0410f81f    ....    DCD    68220959
        0x000015ec:    04000400    ....    DCD    67109888
        0x000015f0:    f81f0410    ....    DCD    4162782224
        0x000015f4:    00100010    ....    DCD    1048592
        0x000015f8:    e011001e    ....    DCD    3759210526
        0x000015fc:    70001c00    ...p    DCD    1879055360
        0x00001600:    001c8013    ....    DCD    1867795
        0x00001604:    c01f0010    ....    DCD    3223257104
        0x00001608:    e0003c10    .<..    DCD    3758111760
        0x0000160c:    e000001f    ....    DCD    3758096415
        0x00001610:    c01f3c10    .<..    DCD    3223272464
        0x00001614:    04100000    ....    DCD    68157440
        0x00001618:    34160c18    ...4    DCD    873860120
        0x0000161c:    c001c001    ....    DCD    3221340161
        0x00001620:    0c183416    .4..    DCD    202912790
        0x00001624:    00100410    ....    DCD    1049616
        0x00001628:    0413001c    ....    DCD    68354076
        0x0000162c:    0413fc00    ....    DCD    68418560
        0x00001630:    0010001c    ....    DCD    1048604
        0x00001634:    04080000    ....    DCD    67633152
        0x00001638:    64101c10    ...d    DCD    1678777360
        0x0000163c:    04138410    ....    DCD    68387856
        0x00001640:    1810041c    ....    DCD    403702812
        0x00001644:    00000000    ....    DCD    0
        0x00001648:    00000000    ....    DCD    0
        0x0000164c:    0240fe7f    ..@.    DCD    37813887
        0x00001650:    02400240    @.@.    DCD    37749312
        0x00001654:    00000000    ....    DCD    0
        0x00001658:    000c0030    0...    DCD    786480
        0x0000165c:    60008003    ...`    DCD    1610645507
        0x00001660:    03001c00    ....    DCD    50338816
        0x00001664:    00000000    ....    DCD    0
        0x00001668:    02400240    @.@.    DCD    37749312
        0x0000166c:    fe7f0240    @...    DCD    4269736512
        0x00001670:    00000000    ....    DCD    0
        0x00001674:    00000000    ....    DCD    0
        0x00001678:    00200000    .. .    DCD    2097152
        0x0000167c:    00400040    @.@.    DCD    4194368
        0x00001680:    00200040    @. .    DCD    2097216
        0x00001684:    01000000    ....    DCD    16777216
        0x00001688:    01000100    ....    DCD    16777472
        0x0000168c:    01000100    ....    DCD    16777472
        0x00001690:    01000100    ....    DCD    16777472
        0x00001694:    00000100    ....    DCD    256
        0x00001698:    00400040    @.@.    DCD    4194368
        0x0000169c:    00000020     ...    DCD    32
        0x000016a0:    00000000    ....    DCD    0
        0x000016a4:    00000000    ....    DCD    0
        0x000016a8:    24019800    ...$    DCD    604084224
        0x000016ac:    44014401    .D.D    DCD    1140933633
        0x000016b0:    fc004401    .D..    DCD    4227875841
        0x000016b4:    00100400    ....    DCD    1049600
        0x000016b8:    8800fc1f    ....    DCD    2281765919
        0x000016bc:    04010401    ....    DCD    67175425
        0x000016c0:    70008800    ...p    DCD    1879083008
        0x000016c4:    00000000    ....    DCD    0
        0x000016c8:    88007000    .p..    DCD    2281730048
        0x000016cc:    04010401    ....    DCD    67175425
        0x000016d0:    88000401    ....    DCD    2281702401
        0x000016d4:    00000000    ....    DCD    0
        0x000016d8:    88007000    .p..    DCD    2281730048
        0x000016dc:    04010401    ....    DCD    67175425
        0x000016e0:    fc1f0811    ....    DCD    4229892113
        0x000016e4:    00000400    ....    DCD    1024
        0x000016e8:    4401f800    ...D    DCD    1140979712
        0x000016ec:    44014401    .D.D    DCD    1140933633
        0x000016f0:    c8004401    .D..    DCD    3355460609
        0x000016f4:    00000000    ....    DCD    0
        0x000016f8:    04010401    ....    DCD    67175425
        0x000016fc:    0411fc0f    ....    DCD    68287503
        0x00001700:    00110411    ....    DCD    1115153
        0x00001704:    00000018    ....    DCD    24
        0x00001708:    2901d600    ...)    DCD    687986176
        0x0000170c:    29012901    .).)    DCD    687941889
        0x00001710:    0601c901    ....    DCD    100780289
        0x00001714:    04100000    ....    DCD    68157440
        0x00001718:    8400fc1f    ....    DCD    2214657055
        0x0000171c:    00010001    ....    DCD    65537
        0x00001720:    fc000401    ....    DCD    4227859457
        0x00001724:    00000400    ....    DCD    1024
        0x00001728:    04190401    ....    DCD    68748289
        0x0000172c:    0400fc19    ....    DCD    67173401
        0x00001730:    00000400    ....    DCD    1024
        0x00001734:    00000000    ....    DCD    0
        0x00001738:    01000300    ....    DCD    16777984
        0x0000173c:    01190101    ....    DCD    18415873
        0x00001740:    0000fe19    ....    DCD    65049
        0x00001744:    04100000    ....    DCD    68157440
        0x00001748:    2400fc1f    ...$    DCD    604044319
        0x0000174c:    b4014000    .@..    DCD    3019980800
        0x00001750:    04010c01    ....    DCD    67177473
        0x00001754:    00000000    ....    DCD    0
        0x00001758:    04100410    ....    DCD    68158480
        0x0000175c:    0400fc1f    ....    DCD    67173407
        0x00001760:    00000400    ....    DCD    1024
        0x00001764:    04010000    ....    DCD    67174400
        0x00001768:    0401fc01    ....    DCD    67238913
        0x0000176c:    fc010001    ....    DCD    4227923969
        0x00001770:    00010401    ....    DCD    66561
        0x00001774:    0401fc00    ....    DCD    67238912
        0x00001778:    8400fc01    ....    DCD    2214657025
        0x0000177c:    00010001    ....    DCD    65537
        0x00001780:    fc000401    ....    DCD    4227859457
        0x00001784:    00000400    ....    DCD    1024
        0x00001788:    0401f800    ....    DCD    67237888
        0x0000178c:    04010401    ....    DCD    67175425
        0x00001790:    f8000401    ....    DCD    4160750593
        0x00001794:    01010000    ....    DCD    16842752
        0x00001798:    8500ff01    ....    DCD    2231435009
        0x0000179c:    04010401    ....    DCD    67175425
        0x000017a0:    70008800    ...p    DCD    1879083008
        0x000017a4:    00000000    ....    DCD    0
        0x000017a8:    88007000    .p..    DCD    2281730048
        0x000017ac:    04010401    ....    DCD    67175425
        0x000017b0:    ff010501    ....    DCD    4278256897
        0x000017b4:    04010100    ....    DCD    67174656
        0x000017b8:    fc010401    ....    DCD    4227924993
        0x000017bc:    04018400    ....    DCD    67208192
        0x000017c0:    80010001    ....    DCD    2147549185
        0x000017c4:    00000000    ....    DCD    0
        0x000017c8:    2401cc00    ...$    DCD    604097536
        0x000017cc:    24012401    .$.$    DCD    604054529
        0x000017d0:    98012401    .$..    DCD    2550211585
        0x000017d4:    00000000    ....    DCD    0
        0x000017d8:    00010001    ....    DCD    65537
        0x000017dc:    0401f807    ....    DCD    67237895
        0x000017e0:    00000401    ....    DCD    1025
        0x000017e4:    00010000    ....    DCD    65536
        0x000017e8:    0400f801    ....    DCD    67172353
        0x000017ec:    04000400    ....    DCD    67109888
        0x000017f0:    fc010801    ....    DCD    4227926017
        0x000017f4:    00010400    ....    DCD    66560
        0x000017f8:    70018001    ...p    DCD    1879146497
        0x000017fc:    10000c00    ....    DCD    268438528
        0x00001800:    80016001    .`..    DCD    2147573761
        0x00001804:    f0010001    ....    DCD    4026597377
        0x00001808:    30000c01    ...0    DCD    805309441
        0x0000180c:    3000c001    ...0    DCD    805355521
        0x00001810:    f0010c01    ....    DCD    4026600449
        0x00001814:    00000001    ....    DCD    1
        0x00001818:    8c010401    ....    DCD    2348876801
        0x0000181c:    70017400    .t.p    DCD    1879143424
        0x00001820:    04018c01    ....    DCD    67210241
        0x00001824:    01010000    ....    DCD    16842752
        0x00001828:    71018101    ...q    DCD    1895923969
        0x0000182c:    18000e00    ....    DCD    402656768
        0x00001830:    80016001    .`..    DCD    2147573761
        0x00001834:    00000001    ....    DCD    1
        0x00001838:    0c018401    ....    DCD    201425921
        0x0000183c:    44013401    .4.D    DCD    1140929537
        0x00001840:    0c018401    ....    DCD    201425921
        0x00001844:    00000000    ....    DCD    0
        0x00001848:    00000000    ....    DCD    0
        0x0000184c:    00010000    ....    DCD    65536
        0x00001850:    0240fc3e    >.@.    DCD    37813310
        0x00001854:    00000240    @...    DCD    576
        0x00001858:    00000000    ....    DCD    0
        0x0000185c:    ffff0000    ....    DCD    4294901760
        0x00001860:    00000000    ....    DCD    0
        0x00001864:    00000000    ....    DCD    0
        0x00001868:    02400240    @.@.    DCD    37749312
        0x0000186c:    0001fc3e    >...    DCD    130110
        0x00001870:    00000000    ....    DCD    0
        0x00001874:    00000000    ....    DCD    0
        0x00001878:    00800060    `...    DCD    8388704
        0x0000187c:    00400080    ..@.    DCD    4194432
        0x00001880:    00200040    @. .    DCD    2097216
        0x00001884:    00000020     ...    DCD    32
    Region$$Table$$Base
        0x00001888:    000018a8    ....    DCD    6312
        0x0000188c:    20000000    ...     DCD    536870912
        0x00001890:    0000000c    ....    DCD    12
        0x00001894:    00000de0    ....    DCD    3552
        0x00001898:    000018b4    ....    DCD    6324
        0x0000189c:    2000000c    ...     DCD    536870924
        0x000018a0:    00000414    ....    DCD    1044
        0x000018a4:    00000df0    ....    DCD    3568
    Region$$Table$$Limit

====================================

** Section #2

    Name        : RW_IRAM1
    Type        : SHT_PROGBITS (0x00000001)
    Flags       : SHF_ALLOC + SHF_WRITE (0x00000003)
    Addr        : 0x20000000
    File Offset : 6364 (0x18dc)
    Size        : 12 bytes (0xc)
    Link        : SHN_UNDEF
    Info        : 0
    Alignment   : 4
    Entry Size  : 0


====================================

** Section #3

    Name        : RW_IRAM1
    Type        : SHT_NOBITS (0x00000008)
    Flags       : SHF_ALLOC + SHF_WRITE (0x00000003)
    Addr        : 0x2000000c
    File Offset : 6376 (0x18e8)
    Size        : 1044 bytes (0x414)
    Link        : SHN_UNDEF
    Info        : 0
    Alignment   : 8
    Entry Size  : 0


====================================

** Section #4

    Name        : .debug_abbrev
    Type        : SHT_PROGBITS (0x00000001)
    Flags       : None (0x00000000)
    Addr        : 0x00000000
    File Offset : 6376 (0x18e8)
    Size        : 1476 bytes (0x5c4)
    Link        : SHN_UNDEF
    Info        : 0
    Alignment   : 1
    Entry Size  : 0


====================================

** Section #5

    Name        : .debug_frame
    Type        : SHT_PROGBITS (0x00000001)
    Flags       : None (0x00000000)
    Addr        : 0x00000000
    File Offset : 7852 (0x1eac)
    Size        : 2256 bytes (0x8d0)
    Link        : SHN_UNDEF
    Info        : 0
    Alignment   : 1
    Entry Size  : 0


====================================

** Section #6

    Name        : .debug_info
    Type        : SHT_PROGBITS (0x00000001)
    Flags       : None (0x00000000)
    Addr        : 0x00000000
    File Offset : 10108 (0x277c)
    Size        : 20556 bytes (0x504c)
    Link        : SHN_UNDEF
    Info        : 0
    Alignment   : 1
    Entry Size  : 0


====================================

** Section #7

    Name        : .debug_line
    Type        : SHT_PROGBITS (0x00000001)
    Flags       : None (0x00000000)
    Addr        : 0x00000000
    File Offset : 30664 (0x77c8)
    Size        : 8164 bytes (0x1fe4)
    Link        : SHN_UNDEF
    Info        : 0
    Alignment   : 1
    Entry Size  : 0


====================================

** Section #8

    Name        : .debug_loc
    Type        : SHT_PROGBITS (0x00000001)
    Flags       : None (0x00000000)
    Addr        : 0x00000000
    File Offset : 38828 (0x97ac)
    Size        : 3320 bytes (0xcf8)
    Link        : SHN_UNDEF
    Info        : 0
    Alignment   : 1
    Entry Size  : 0


====================================

** Section #9

    Name        : .debug_macinfo
    Type        : SHT_PROGBITS (0x00000001)
    Flags       : None (0x00000000)
    Addr        : 0x00000000
    File Offset : 42148 (0xa4a4)
    Size        : 13260 bytes (0x33cc)
    Link        : SHN_UNDEF
    Info        : 0
    Alignment   : 1
    Entry Size  : 0


====================================

** Section #10

    Name        : .debug_pubnames
    Type        : SHT_PROGBITS (0x00000001)
    Flags       : None (0x00000000)
    Addr        : 0x00000000
    File Offset : 55408 (0xd870)
    Size        : 2255 bytes (0x8cf)
    Link        : SHN_UNDEF
    Info        : 0
    Alignment   : 1
    Entry Size  : 0


====================================

** Section #11

    Name        : .symtab
    Type        : SHT_SYMTAB (0x00000002)
    Flags       : None (0x00000000)
    Addr        : 0x00000000
    File Offset : 57664 (0xe140)
    Size        : 5872 bytes (0x16f0)
    Link        : Section 12 (.strtab)
    Info        : Last local symbol no = 215
    Alignment   : 4
    Entry Size  : 16


====================================

** Section #12

    Name        : .strtab
    Type        : SHT_STRTAB (0x00000003)
    Flags       : None (0x00000000)
    Addr        : 0x00000000
    File Offset : 63536 (0xf830)
    Size        : 4248 bytes (0x1098)
    Link        : SHN_UNDEF
    Info        : 0
    Alignment   : 1
    Entry Size  : 0


====================================

** Section #13

    Name        : .note
    Type        : SHT_NOTE (0x00000007)
    Flags       : None (0x00000000)
    Addr        : 0x00000000
    File Offset : 67784 (0x108c8)
    Size        : 28 bytes (0x1c)
    Link        : SHN_UNDEF
    Info        : 0
    Alignment   : 4
    Entry Size  : 0

        Section     Segment
    ====================================

              1           0
              2           0
              3           0

====================================

** Section #14

    Name        : .comment
    Type        : SHT_PROGBITS (0x00000001)
    Flags       : None (0x00000000)
    Addr        : 0x00000000
    File Offset : 67812 (0x108e4)
    Size        : 6848 bytes (0x1ac0)
    Link        : SHN_UNDEF
    Info        : 0
    Alignment   : 1
    Entry Size  : 0

    Component: ARM Compiler 5.06 update 6 (build 750) Tool: armlink [4d35ed]
    ArmLink --strict --library_type=microlib --callgraph --load_addr_map_info --map --symbols --xref --diag_suppress=9931 --cpu=Cortex-M0 --list=.\Listings\cm0.map --output=.\cm0.axf --scatter=.\cm0.sct --info=summarysizes,sizes,totals,unused,veneers

    D:\Program Files\Keil_V5\ARM\ARMCC\Bin\..\lib\armlib\h_p.l
    D:\Program Files\Keil_V5\ARM\ARMCC\Bin\..\lib\armlib\m_ps.l
    D:\Program Files\Keil_V5\ARM\ARMCC\Bin\..\lib\armlib\mc_p.l
    D:\Program Files\Keil_V5\ARM\ARMCC\Bin\..\lib\armlib\mf_p.l
    D:\Program Files\Keil_V5\ARM\ARMCC\Bin\..\lib\armlib\vfpsupport.l
    Input Comments:
    
    cortexm0_driver.o
    
    Component: ARM Compiler 5.06 update 6 (build 750) Tool: armlink [4d35ed]
    armlink --partial --no_add_relocs_to_undefined --no_generate_mapping_symbols --diag_suppress=9931,9931,6642 --cpu=Cortex-M0 --fpu=SoftVFP --output=.\cortexm0_driver.o --vfemode=force

    Input Comments:
    
    p3228-3
    
    Component: ARM Compiler 5.06 update 6 (build 750) Tool: armasm [4d35ec]
    armasm --debug --diag_suppress=9931,9931,1602,1073 --cpu=Cortex-M0 --fpu=SoftVFP --apcs=/interwork/interwork --no_divide 
    cortexm0_driver.o
    
    Component: ARM Compiler 5.06 update 6 (build 750) Tool: ArmCC [4d3637]
    ArmCC --c99 --split_sections --debug -c --gnu -o.\cortexm0_driver.o --depend=.\cortexm0_driver.d --cpu=Cortex-M0 --apcs=interwork -O0 --diag_suppress=9931 -I..\Software -I.\RTE\_Target_1 -I"D:\Program Files\Keil_V5\Arm\Packs\Keil\V2M-MPS2_CMx_BSP\1.7.1\Device\CMSDK_CM0\Include" -I"D:\Program Files\Keil_V5\ARM\CMSIS\Include" -D__MICROLIB -D__UVISION_VERSION=528 -DCMSDK_CM0 --omf_browse=.\cortexm0_driver.crf ..\Software\CortexM0_driver.c
    
    
    handler.o
    
    Component: ARM Compiler 5.06 update 6 (build 750) Tool: armlink [4d35ed]
    armlink --partial --no_add_relocs_to_undefined --no_generate_mapping_symbols --diag_suppress=9931,9931,6642 --cpu=Cortex-M0 --fpu=SoftVFP --output=.\handler.o --vfemode=force

    Input Comments:
    
    p290c-3
    
    Component: ARM Compiler 5.06 update 6 (build 750) Tool: armasm [4d35ec]
    armasm --debug --diag_suppress=9931,9931,1602,1073 --cpu=Cortex-M0 --fpu=SoftVFP --apcs=/interwork/interwork --no_divide 
    handler.o
    
    Component: ARM Compiler 5.06 update 6 (build 750) Tool: ArmCC [4d3637]
    ArmCC --c99 --split_sections --debug -c --gnu -o.\handler.o --depend=.\handler.d --cpu=Cortex-M0 --apcs=interwork -O0 --diag_suppress=9931 -I..\Software -I.\RTE\_Target_1 -I"D:\Program Files\Keil_V5\Arm\Packs\Keil\V2M-MPS2_CMx_BSP\1.7.1\Device\CMSDK_CM0\Include" -I"D:\Program Files\Keil_V5\ARM\CMSIS\Include" -D__MICROLIB -D__UVISION_VERSION=528 -DCMSDK_CM0 --omf_browse=.\handler.crf ..\Software\handler.c
    
    
    main.o
    
    Component: ARM Compiler 5.06 update 6 (build 750) Tool: armlink [4d35ed]
    armlink --partial --no_add_relocs_to_undefined --no_generate_mapping_symbols --diag_suppress=9931,9931,6642 --cpu=Cortex-M0 --fpu=SoftVFP --output=.\main.o --vfemode=force

    Input Comments:
    
    p1aa0-3
    
    Component: ARM Compiler 5.06 update 6 (build 750) Tool: armasm [4d35ec]
    armasm --debug --diag_suppress=9931,9931,1602,1073 --cpu=Cortex-M0 --fpu=SoftVFP --apcs=/interwork/interwork --no_divide 
    main.o
    
    Component: ARM Compiler 5.06 update 6 (build 750) Tool: ArmCC [4d3637]
    ArmCC --c99 --split_sections --debug -c --gnu -o.\main.o --depend=.\main.d --cpu=Cortex-M0 --apcs=interwork -O0 --diag_suppress=9931 -I..\Software -I.\RTE\_Target_1 -I"D:\Program Files\Keil_V5\Arm\Packs\Keil\V2M-MPS2_CMx_BSP\1.7.1\Device\CMSDK_CM0\Include" -I"D:\Program Files\Keil_V5\ARM\CMSIS\Include" -D__MICROLIB -D__UVISION_VERSION=528 -DCMSDK_CM0 --omf_browse=.\main.crf ..\Software\main.c
    
    
    
    
    retarget.o
    
    Component: ARM Compiler 5.06 update 6 (build 750) Tool: armlink [4d35ed]
    armlink --partial --no_add_relocs_to_undefined --no_generate_mapping_symbols --diag_suppress=9931,9931,6642 --cpu=Cortex-M0 --fpu=SoftVFP --output=.\retarget.o --vfemode=force

    Input Comments:
    
    p4bf4-3
    
    Component: ARM Compiler 5.06 update 6 (build 750) Tool: armasm [4d35ec]
    armasm --debug --diag_suppress=9931,9931,1602,1073 --cpu=Cortex-M0 --fpu=SoftVFP --apcs=/interwork/interwork --no_divide 
    retarget.o
    
    Component: ARM Compiler 5.06 update 6 (build 750) Tool: ArmCC [4d3637]
    ArmCC --c99 --split_sections --debug -c --gnu -o.\retarget.o --depend=.\retarget.d --cpu=Cortex-M0 --apcs=interwork -O0 --diag_suppress=9931 -I..\Software -I.\RTE\_Target_1 -I"D:\Program Files\Keil_V5\Arm\Packs\Keil\V2M-MPS2_CMx_BSP\1.7.1\Device\CMSDK_CM0\Include" -I"D:\Program Files\Keil_V5\ARM\CMSIS\Include" -D__MICROLIB -D__UVISION_VERSION=528 -DCMSDK_CM0 --omf_browse=.\retarget.crf ..\Software\Retarget.c
    
    
    
    
    startup_cm0ds.o
    
    Component: ARM Compiler 5.06 update 6 (build 750) Tool: armasm [4d35ec]
    ArmAsm --debug --xref --diag_suppress=9931 --cpu=Cortex-M0 --apcs=interwork --depend=.\startup_cm0ds.d  -I..\Software -I..\Keil -I.\RTE\_Target_1 -I"D:\Program Files\Keil_V5\Arm\Packs\Keil\V2M-MPS2_CMx_BSP\1.7.1\Device\CMSDK_CM0\Include" -I"D:
    
    
    system.o
    
    Component: ARM Compiler 5.06 update 6 (build 750) Tool: armlink [4d35ed]
    armlink --partial --no_add_relocs_to_undefined --no_generate_mapping_symbols --diag_suppress=9931,9931,6642 --cpu=Cortex-M0 --fpu=SoftVFP --output=.\system.o --vfemode=force

    Input Comments:
    
    p1a58-3
    
    Component: ARM Compiler 5.06 update 6 (build 750) Tool: armasm [4d35ec]
    armasm --debug --diag_suppress=9931,9931,1602,1073 --cpu=Cortex-M0 --fpu=SoftVFP --apcs=/interwork/interwork --no_divide 
    system.o
    
    Component: ARM Compiler 5.06 update 6 (build 750) Tool: ArmCC [4d3637]
    ArmCC --c99 --split_sections --debug -c --gnu -o.\system.o --depend=.\system.d --cpu=Cortex-M0 --apcs=interwork -O0 --diag_suppress=9931 -I..\Software -I.\RTE\_Target_1 -I"D:\Program Files\Keil_V5\Arm\Packs\Keil\V2M-MPS2_CMx_BSP\1.7.1\Device\CMSDK_CM0\Include" -I"D:\Program Files\Keil_V5\ARM\CMSIS\Include" -D__MICROLIB -D__UVISION_VERSION=528 -DCMSDK_CM0 --omf_browse=.\system.crf ..\Software\system.c
    
    
    
    
    camera.o
    
    Component: ARM Compiler 5.06 update 6 (build 750) Tool: armlink [4d35ed]
    armlink --partial --no_add_relocs_to_undefined --no_generate_mapping_symbols --diag_suppress=9931,9931,6642 --cpu=Cortex-M0 --fpu=SoftVFP --output=.\camera.o --vfemode=force

    Input Comments:
    
    p426c-3
    
    Component: ARM Compiler 5.06 update 6 (build 750) Tool: armasm [4d35ec]
    armasm --debug --diag_suppress=9931,9931,1602,1073 --cpu=Cortex-M0 --fpu=SoftVFP --apcs=/interwork/interwork --no_divide 
    camera.o
    
    Component: ARM Compiler 5.06 update 6 (build 750) Tool: ArmCC [4d3637]
    ArmCC --c99 --split_sections --debug -c --gnu -o.\camera.o --depend=.\camera.d --cpu=Cortex-M0 --apcs=interwork -O0 --diag_suppress=9931 -I..\Software -I.\RTE\_Target_1 -I"D:\Program Files\Keil_V5\Arm\Packs\Keil\V2M-MPS2_CMx_BSP\1.7.1\Device\CMSDK_CM0\Include" -I"D:\Program Files\Keil_V5\ARM\CMSIS\Include" -D__MICROLIB -D__UVISION_VERSION=528 -DCMSDK_CM0 --omf_browse=.\camera.crf ..\Software\camera.c
    
    
    
    
    
    

====================================

** Section #15

    Name        : .shstrtab
    Type        : SHT_STRTAB (0x00000003)
    Flags       : None (0x00000000)
    Addr        : 0x00000000
    File Offset : 74660 (0x123a4)
    Size        : 156 bytes (0x9c)
    Link        : SHN_UNDEF
    Info        : 0
    Alignment   : 1
    Entry Size  : 0


====================================

