
========================================================================

** ELF Header Information

    File Name: .\cm0.axf

    Machine class: ELFCLASS32 (32-bit)
    Data encoding: ELFDATA2LSB (Little endian)
    Header version: EV_CURRENT (Current version)
    Operating System ABI: none
    ABI Version: 0
    File Type: ET_EXEC (Executable) (2)
    Machine: EM_ARM (ARM)

    Image Entry point: 0x00000061
    Flags: EF_ARM_HASENTRY + EF_ARM_ABI_FLOAT_SOFT (0x05000202)

    ARM ELF revision: 5 (ABI version 2)

    Conforms to Soft float procedure-call standard

    Built with
    Component: ARM Compiler 5.06 update 6 (build 750) Tool: armasm [4d35ec]
    Component: ARM Compiler 5.06 update 6 (build 750) Tool: armlink [4d35ed]

    Header size: 52 bytes (0x34)
    Program header entry size: 32 bytes (0x20)
    Section header entry size: 40 bytes (0x28)

    Program header entries: 1
    Section header entries: 16

    Program header offset: 81128 (0x00013ce8)
    Section header offset: 81160 (0x00013d08)

    Section header string table index: 15

========================================================================

** Program header #0

    Type          : PT_LOAD (1)
    File Offset   : 52 (0x34)
    Virtual Addr  : 0x00000000
    Physical Addr : 0x00000000
    Size in file  : 10888 bytes (0x2a88)
    Size in memory: 11932 bytes (0x2e9c)
    Flags         : PF_X + PF_W + PF_R + PF_ARM_ENTRY (0x80000007)
    Alignment     : 8


========================================================================

** Section #1

    Name        : ER_IROM1
    Type        : SHT_PROGBITS (0x00000001)
    Flags       : SHF_ALLOC + SHF_EXECINSTR (0x00000006)
    Addr        : 0x00000000
    File Offset : 52 (0x34)
    Size        : 10876 bytes (0x2a7c)
    Link        : SHN_UNDEF
    Info        : 0
    Alignment   : 4
    Entry Size  : 0

    $d.realdata
    RESET
    __Vectors
        0x00000000:    20000420     ..     DCD    536871968
        0x00000004:    00000075    u...    DCD    117
        0x00000008:    00000081    ....    DCD    129
        0x0000000c:    00000089    ....    DCD    137
        0x00000010:    00000091    ....    DCD    145
        0x00000014:    00000099    ....    DCD    153
        0x00000018:    000000a1    ....    DCD    161
        0x0000001c:    00000000    ....    DCD    0
        0x00000020:    00000000    ....    DCD    0
        0x00000024:    00000000    ....    DCD    0
        0x00000028:    00000000    ....    DCD    0
        0x0000002c:    000000a9    ....    DCD    169
        0x00000030:    000000b1    ....    DCD    177
        0x00000034:    00000000    ....    DCD    0
        0x00000038:    000000b9    ....    DCD    185
        0x0000003c:    000000c1    ....    DCD    193
        0x00000040:    000000d1    ....    DCD    209
        0x00000044:    000000c9    ....    DCD    201
        0x00000048:    000000d9    ....    DCD    217
        0x0000004c:    000000e1    ....    DCD    225
        0x00000050:    000000e9    ....    DCD    233
        0x00000054:    000000f1    ....    DCD    241
        0x00000058:    000000f9    ....    DCD    249
        0x0000005c:    00000101    ....    DCD    257
    $t
    .ARM.Collect$$$$00000000
    .ARM.Collect$$$$00000001
    __Vectors_End
    __main
    _main_stk
        0x00000060:    4803        .H      LDR      r0,__lit__00000000 ; [0x70] = 0x20000420
        0x00000062:    4685        .F      MOV      sp,r0
    .ARM.Collect$$$$00000004
    _main_scatterload
        0x00000064:    f000f854    ..T.    BL       __scatterload ; 0x110
    .ARM.Collect$$$$00000008
    .ARM.Collect$$$$0000000A
    .ARM.Collect$$$$0000000B
    __main_after_scatterload
    _main_clock
    _main_cpp_init
    _main_init
        0x00000068:    4800        .H      LDR      r0,[pc,#0] ; [0x6c] = 0x1129
        0x0000006a:    4700        .G      BX       r0
    $d
        0x0000006c:    00001129    )...    DCD    4393
    .ARM.Collect$$$$00002712
    __lit__00000000
    .ARM.Collect$$$$0000000D
    .ARM.Collect$$$$0000000F
    __rt_final_cpp
    __rt_final_exit
        0x00000070:    20000420     ..     DCD    536871968
    $t
    .text
    Reset_Handler
        0x00000074:    4824        $H      LDR      r0,[pc,#144] ; [0x108] = 0x102d
        0x00000076:    4680        .F      MOV      r8,r0
        0x00000078:    46c1        .F      MOV      r9,r8
        0x0000007a:    4780        .G      BLX      r0
        0x0000007c:    4823        #H      LDR      r0,[pc,#140] ; [0x10c] = 0x61
        0x0000007e:    4700        .G      BX       r0
    NMI_Handler
        0x00000080:    b500        ..      PUSH     {lr}
        0x00000082:    f000ff74    ..t.    BL       NMIHandler ; 0xf6e
        0x00000086:    bd00        ..      POP      {pc}
    HardFault_Handler
        0x00000088:    b500        ..      PUSH     {lr}
        0x0000008a:    f000fab2    ....    BL       HardFaultHandler ; 0x5f2
        0x0000008e:    bd00        ..      POP      {pc}
    MemManage_Handler
        0x00000090:    b500        ..      PUSH     {lr}
        0x00000092:    f000ff6b    ..k.    BL       MemManageHandler ; 0xf6c
        0x00000096:    bd00        ..      POP      {pc}
    BusFault_Handler
        0x00000098:    b500        ..      PUSH     {lr}
        0x0000009a:    f000f84b    ..K.    BL       BusFaultHandler ; 0x134
        0x0000009e:    bd00        ..      POP      {pc}
    UsageFault_Handler
        0x000000a0:    b500        ..      PUSH     {lr}
        0x000000a2:    f000ffea    ....    BL       UsageFaultHandler ; 0x107a
        0x000000a6:    bd00        ..      POP      {pc}
    SVC_Handler
        0x000000a8:    b500        ..      PUSH     {lr}
        0x000000aa:    f000ff79    ..y.    BL       SVCHandler ; 0xfa0
        0x000000ae:    bd00        ..      POP      {pc}
    DebugMon_Handler
        0x000000b0:    b500        ..      PUSH     {lr}
        0x000000b2:    f000fa9d    ....    BL       DebugMonHandler ; 0x5f0
        0x000000b6:    bd00        ..      POP      {pc}
    PendSV_Handler
        0x000000b8:    b500        ..      PUSH     {lr}
        0x000000ba:    f000ff63    ..c.    BL       PendSVHandler ; 0xf84
        0x000000be:    bd00        ..      POP      {pc}
    SysTick_Handler
        0x000000c0:    b500        ..      PUSH     {lr}
        0x000000c2:    f000ffa5    ....    BL       SysTickHandler ; 0x1010
        0x000000c6:    bd00        ..      POP      {pc}
    UARTRX_Handler
        0x000000c8:    b500        ..      PUSH     {lr}
        0x000000ca:    f000ffc4    ....    BL       UARTRXHandler ; 0x1056
        0x000000ce:    bd00        ..      POP      {pc}
    UARTTX_Handler
        0x000000d0:    b500        ..      PUSH     {lr}
        0x000000d2:    f000ffc9    ....    BL       UARTTXHandler ; 0x1068
        0x000000d6:    bd00        ..      POP      {pc}
    UARTOVR_Handler
        0x000000d8:    b500        ..      PUSH     {lr}
        0x000000da:    f000ffbb    ....    BL       UARTOVRHandler ; 0x1054
        0x000000de:    bd00        ..      POP      {pc}
    KEY0_Handler
        0x000000e0:    b507        ..      PUSH     {r0-r2,lr}
        0x000000e2:    f000fa87    ....    BL       KEY0 ; 0x5f4
        0x000000e6:    bd07        ..      POP      {r0-r2,pc}
    KEY1_Handler
        0x000000e8:    b507        ..      PUSH     {r0-r2,lr}
        0x000000ea:    f000faa5    ....    BL       KEY1 ; 0x638
        0x000000ee:    bd07        ..      POP      {r0-r2,pc}
    KEY2_Handler
        0x000000f0:    b507        ..      PUSH     {r0-r2,lr}
        0x000000f2:    f000faa6    ....    BL       KEY2 ; 0x642
        0x000000f6:    bd07        ..      POP      {r0-r2,pc}
    KEY3_Handler
        0x000000f8:    b507        ..      PUSH     {r0-r2,lr}
        0x000000fa:    f000faa7    ....    BL       KEY3 ; 0x64c
        0x000000fe:    bd07        ..      POP      {r0-r2,pc}
    TIMER_Handler
        0x00000100:    b507        ..      PUSH     {r0-r2,lr}
        0x00000102:    f000ff95    ....    BL       Timer_Handler ; 0x1030
        0x00000106:    bd07        ..      POP      {r0-r2,pc}
    $d
        0x00000108:    0000102d    -...    DCD    4141
        0x0000010c:    00000061    a...    DCD    97
    $t
    .text
    __scatterload
    __scatterload_rt2
        0x00000110:    4c06        .L      LDR      r4,[pc,#24] ; [0x12c] = 0x2a5c
        0x00000112:    2501        .%      MOVS     r5,#1
        0x00000114:    4e06        .N      LDR      r6,[pc,#24] ; [0x130] = 0x2a7c
        0x00000116:    e005        ..      B        0x124 ; __scatterload + 20
        0x00000118:    68e3        .h      LDR      r3,[r4,#0xc]
        0x0000011a:    cc07        ..      LDM      r4!,{r0-r2}
        0x0000011c:    432b        +C      ORRS     r3,r3,r5
        0x0000011e:    3c0c        .<      SUBS     r4,r4,#0xc
        0x00000120:    4798        .G      BLX      r3
        0x00000122:    3410        .4      ADDS     r4,r4,#0x10
        0x00000124:    42b4        .B      CMP      r4,r6
        0x00000126:    d3f7        ..      BCC      0x118 ; __scatterload + 8
        0x00000128:    f7ffff9e    ....    BL       __main_after_scatterload ; 0x68
    $d
        0x0000012c:    00002a5c    \*..    DCD    10844
        0x00000130:    00002a7c    |*..    DCD    10876
    $t
    i.BusFaultHandler
    BusFaultHandler
        0x00000134:    4770        pG      BX       lr
    i.CAMERA_Command
    CAMERA_Command
        0x00000136:    b570        p.      PUSH     {r4-r6,lr}
        0x00000138:    4606        .F      MOV      r6,r0
        0x0000013a:    460c        .F      MOV      r4,r1
        0x0000013c:    4615        .F      MOV      r5,r2
        0x0000013e:    f000f9f5    ....    BL       CAMERA_Start ; 0x52c
        0x00000142:    2078        x       MOVS     r0,#0x78
        0x00000144:    f000fa13    ....    BL       CAMERA_Write_Byte ; 0x56e
        0x00000148:    4630        0F      MOV      r0,r6
        0x0000014a:    f000fa10    ....    BL       CAMERA_Write_Byte ; 0x56e
        0x0000014e:    4620         F      MOV      r0,r4
        0x00000150:    f000fa0d    ....    BL       CAMERA_Write_Byte ; 0x56e
        0x00000154:    4628        (F      MOV      r0,r5
        0x00000156:    f000fa0a    ....    BL       CAMERA_Write_Byte ; 0x56e
        0x0000015a:    f000f9f7    ....    BL       CAMERA_Stop ; 0x54c
        0x0000015e:    bd70        p.      POP      {r4-r6,pc}
    i.CAMERA_Initial
    CAMERA_Initial
        0x00000160:    b5f0        ..      PUSH     {r4-r7,lr}
        0x00000162:    b085        ..      SUB      sp,sp,#0x14
        0x00000164:    f000ff3c    ..<.    BL       Set_CAMERA_SDA_W ; 0xfe0
        0x00000168:    f000fa30    ..0.    BL       Clr_CAMERA_PWDN ; 0x5cc
        0x0000016c:    2064        d       MOVS     r0,#0x64
        0x0000016e:    f000ffbb    ....    BL       delay ; 0x10e8
        0x00000172:    f000ff1d    ....    BL       Set_CAMERA_RST ; 0xfb0
        0x00000176:    2064        d       MOVS     r0,#0x64
        0x00000178:    f000ffb6    ....    BL       delay ; 0x10e8
        0x0000017c:    48b8        .H      LDR      r0,[pc,#736] ; [0x460] = 0x300a
        0x0000017e:    f000f9b5    ....    BL       CAMERA_Read_Reg ; 0x4ec
        0x00000182:    9004        ..      STR      r0,[sp,#0x10]
        0x00000184:    9804        ..      LDR      r0,[sp,#0x10]
        0x00000186:    0200        ..      LSLS     r0,r0,#8
        0x00000188:    9004        ..      STR      r0,[sp,#0x10]
        0x0000018a:    48b5        .H      LDR      r0,[pc,#724] ; [0x460] = 0x300a
        0x0000018c:    1c40        @.      ADDS     r0,r0,#1
        0x0000018e:    f000f9ad    ....    BL       CAMERA_Read_Reg ; 0x4ec
        0x00000192:    9904        ..      LDR      r1,[sp,#0x10]
        0x00000194:    4308        .C      ORRS     r0,r0,r1
        0x00000196:    9004        ..      STR      r0,[sp,#0x10]
        0x00000198:    2400        .$      MOVS     r4,#0
        0x0000019a:    e00f        ..      B        0x1bc ; CAMERA_Initial + 92
        0x0000019c:    0060        `.      LSLS     r0,r4,#1
        0x0000019e:    1820         .      ADDS     r0,r4,r0
        0x000001a0:    4bb0        .K      LDR      r3,[pc,#704] ; [0x464] = 0x17ba
        0x000001a2:    18c0        ..      ADDS     r0,r0,r3
        0x000001a4:    7882        .x      LDRB     r2,[r0,#2]
        0x000001a6:    0060        `.      LSLS     r0,r4,#1
        0x000001a8:    1820         .      ADDS     r0,r4,r0
        0x000001aa:    18c0        ..      ADDS     r0,r0,r3
        0x000001ac:    7841        Ax      LDRB     r1,[r0,#1]
        0x000001ae:    0060        `.      LSLS     r0,r4,#1
        0x000001b0:    1820         .      ADDS     r0,r4,r0
        0x000001b2:    5c18        .\      LDRB     r0,[r3,r0]
        0x000001b4:    9000        ..      STR      r0,[sp,#0]
        0x000001b6:    f7ffffbe    ....    BL       CAMERA_Command ; 0x136
        0x000001ba:    1c64        d.      ADDS     r4,r4,#1
        0x000001bc:    20ff        .       MOVS     r0,#0xff
        0x000001be:    3008        .0      ADDS     r0,r0,#8
        0x000001c0:    4284        .B      CMP      r4,r0
        0x000001c2:    d3eb        ..      BCC      0x19c ; CAMERA_Initial + 60
        0x000001c4:    2220         "      MOVS     r2,#0x20
        0x000001c6:    2100        .!      MOVS     r1,#0
        0x000001c8:    2030        0       MOVS     r0,#0x30
        0x000001ca:    f7ffffb4    ....    BL       CAMERA_Command ; 0x136
        0x000001ce:    2501        .%      MOVS     r5,#1
        0x000001d0:    03ed        ..      LSLS     r5,r5,#15
        0x000001d2:    268f        .&      MOVS     r6,#0x8f
        0x000001d4:    2764        d'      MOVS     r7,#0x64
        0x000001d6:    2400        .$      MOVS     r4,#0
        0x000001d8:    e008        ..      B        0x1ec ; CAMERA_Initial + 140
        0x000001da:    4ba3        .K      LDR      r3,[pc,#652] ; [0x468] = 0x1acf
        0x000001dc:    5d1a        .]      LDRB     r2,[r3,r4]
        0x000001de:    b2e9        ..      UXTB     r1,r5
        0x000001e0:    1228        (.      ASRS     r0,r5,#8
        0x000001e2:    f7ffffa8    ....    BL       CAMERA_Command ; 0x136
        0x000001e6:    1c68        h.      ADDS     r0,r5,#1
        0x000001e8:    b285        ..      UXTH     r5,r0
        0x000001ea:    1c64        d.      ADDS     r4,r4,#1
        0x000001ec:    489f        .H      LDR      r0,[pc,#636] ; [0x46c] = 0xf5d
        0x000001ee:    4284        .B      CMP      r4,r0
        0x000001f0:    d3f3        ..      BCC      0x1da ; CAMERA_Initial + 122
        0x000001f2:    2200        ."      MOVS     r2,#0
        0x000001f4:    2122        "!      MOVS     r1,#0x22
        0x000001f6:    2030        0       MOVS     r0,#0x30
        0x000001f8:    f7ffff9d    ....    BL       CAMERA_Command ; 0x136
        0x000001fc:    2200        ."      MOVS     r2,#0
        0x000001fe:    2123        #!      MOVS     r1,#0x23
        0x00000200:    2030        0       MOVS     r0,#0x30
        0x00000202:    f7ffff98    ....    BL       CAMERA_Command ; 0x136
        0x00000206:    2200        ."      MOVS     r2,#0
        0x00000208:    2124        $!      MOVS     r1,#0x24
        0x0000020a:    2030        0       MOVS     r0,#0x30
        0x0000020c:    f7ffff93    ....    BL       CAMERA_Command ; 0x136
        0x00000210:    2200        ."      MOVS     r2,#0
        0x00000212:    2125        %!      MOVS     r1,#0x25
        0x00000214:    2030        0       MOVS     r0,#0x30
        0x00000216:    f7ffff8e    ....    BL       CAMERA_Command ; 0x136
        0x0000021a:    2200        ."      MOVS     r2,#0
        0x0000021c:    2126        &!      MOVS     r1,#0x26
        0x0000021e:    2030        0       MOVS     r0,#0x30
        0x00000220:    f7ffff89    ....    BL       CAMERA_Command ; 0x136
        0x00000224:    2200        ."      MOVS     r2,#0
        0x00000226:    2127        '!      MOVS     r1,#0x27
        0x00000228:    2030        0       MOVS     r0,#0x30
        0x0000022a:    f7ffff84    ....    BL       CAMERA_Command ; 0x136
        0x0000022e:    2200        ."      MOVS     r2,#0
        0x00000230:    2128        (!      MOVS     r1,#0x28
        0x00000232:    2030        0       MOVS     r0,#0x30
        0x00000234:    f7ffff7f    ....    BL       CAMERA_Command ; 0x136
        0x00000238:    22ff        ."      MOVS     r2,#0xff
        0x0000023a:    2129        )!      MOVS     r1,#0x29
        0x0000023c:    2030        0       MOVS     r0,#0x30
        0x0000023e:    f7ffff7a    ..z.    BL       CAMERA_Command ; 0x136
        0x00000242:    2200        ."      MOVS     r2,#0
        0x00000244:    4611        .F      MOV      r1,r2
        0x00000246:    2030        0       MOVS     r0,#0x30
        0x00000248:    f7ffff75    ..u.    BL       CAMERA_Command ; 0x136
        0x0000024c:    22ff        ."      MOVS     r2,#0xff
        0x0000024e:    2104        .!      MOVS     r1,#4
        0x00000250:    2030        0       MOVS     r0,#0x30
        0x00000252:    f7ffff70    ..p.    BL       CAMERA_Command ; 0x136
        0x00000256:    2200        ."      MOVS     r2,#0
        0x00000258:    4611        .F      MOV      r1,r2
        0x0000025a:    4610        .F      MOV      r0,r2
        0x0000025c:    f7ffff6b    ..k.    BL       CAMERA_Command ; 0x136
        0x00000260:    2200        ."      MOVS     r2,#0
        0x00000262:    4611        .F      MOV      r1,r2
        0x00000264:    4610        .F      MOV      r0,r2
        0x00000266:    f7ffff66    ..f.    BL       CAMERA_Command ; 0x136
        0x0000026a:    2200        ."      MOVS     r2,#0
        0x0000026c:    4611        .F      MOV      r1,r2
        0x0000026e:    4610        .F      MOV      r0,r2
        0x00000270:    f7ffff61    ..a.    BL       CAMERA_Command ; 0x136
        0x00000274:    2200        ."      MOVS     r2,#0
        0x00000276:    4611        .F      MOV      r1,r2
        0x00000278:    4610        .F      MOV      r0,r2
        0x0000027a:    f7ffff5c    ..\.    BL       CAMERA_Command ; 0x136
        0x0000027e:    bf00        ..      NOP      
        0x00000280:    4877        wH      LDR      r0,[pc,#476] ; [0x460] = 0x300a
        0x00000282:    301f        .0      ADDS     r0,r0,#0x1f
        0x00000284:    f000f932    ..2.    BL       CAMERA_Read_Reg ; 0x4ec
        0x00000288:    4606        .F      MOV      r6,r0
        0x0000028a:    200a        .       MOVS     r0,#0xa
        0x0000028c:    f000ff2c    ..,.    BL       delay ; 0x10e8
        0x00000290:    4638        8F      MOV      r0,r7
        0x00000292:    1e79        y.      SUBS     r1,r7,#1
        0x00000294:    b28f        ..      UXTH     r7,r1
        0x00000296:    2800        .(      CMP      r0,#0
        0x00000298:    d100        ..      BNE      0x29c ; CAMERA_Initial + 316
        0x0000029a:    e001        ..      B        0x2a0 ; CAMERA_Initial + 320
        0x0000029c:    2e70        p.      CMP      r6,#0x70
        0x0000029e:    d1ef        ..      BNE      0x280 ; CAMERA_Initial + 288
        0x000002a0:    bf00        ..      NOP      
        0x000002a2:    2203        ."      MOVS     r2,#3
        0x000002a4:    2112        .!      MOVS     r1,#0x12
        0x000002a6:    2032        2       MOVS     r0,#0x32
        0x000002a8:    f7ffff45    ..E.    BL       CAMERA_Command ; 0x136
        0x000002ac:    2400        .$      MOVS     r4,#0
        0x000002ae:    e00d        ..      B        0x2cc ; CAMERA_Initial + 364
        0x000002b0:    4b6f        oK      LDR      r3,[pc,#444] ; [0x470] = 0x2a2c
        0x000002b2:    5d1a        .]      LDRB     r2,[r3,r4]
        0x000002b4:    230d        .#      MOVS     r3,#0xd
        0x000002b6:    029b        ..      LSLS     r3,r3,#10
        0x000002b8:    18e3        ..      ADDS     r3,r4,r3
        0x000002ba:    b2d9        ..      UXTB     r1,r3
        0x000002bc:    230d        .#      MOVS     r3,#0xd
        0x000002be:    029b        ..      LSLS     r3,r3,#10
        0x000002c0:    18e3        ..      ADDS     r3,r4,r3
        0x000002c2:    041b        ..      LSLS     r3,r3,#16
        0x000002c4:    0e18        ..      LSRS     r0,r3,#24
        0x000002c6:    f7ffff36    ..6.    BL       CAMERA_Command ; 0x136
        0x000002ca:    1c64        d.      ADDS     r4,r4,#1
        0x000002cc:    2c07        .,      CMP      r4,#7
        0x000002ce:    d3ef        ..      BCC      0x2b0 ; CAMERA_Initial + 336
        0x000002d0:    2213        ."      MOVS     r2,#0x13
        0x000002d2:    2112        .!      MOVS     r1,#0x12
        0x000002d4:    2032        2       MOVS     r0,#0x32
        0x000002d6:    f7ffff2e    ....    BL       CAMERA_Command ; 0x136
        0x000002da:    22a3        ."      MOVS     r2,#0xa3
        0x000002dc:    2112        .!      MOVS     r1,#0x12
        0x000002de:    2032        2       MOVS     r0,#0x32
        0x000002e0:    f7ffff29    ..).    BL       CAMERA_Command ; 0x136
        0x000002e4:    2203        ."      MOVS     r2,#3
        0x000002e6:    2112        .!      MOVS     r1,#0x12
        0x000002e8:    2032        2       MOVS     r0,#0x32
        0x000002ea:    f7ffff24    ..$.    BL       CAMERA_Command ; 0x136
        0x000002ee:    221c        ."      MOVS     r2,#0x1c
        0x000002f0:    2181        .!      MOVS     r1,#0x81
        0x000002f2:    2053        S       MOVS     r0,#0x53
        0x000002f4:    f7ffff1f    ....    BL       CAMERA_Command ; 0x136
        0x000002f8:    225a        Z"      MOVS     r2,#0x5a
        0x000002fa:    2182        .!      MOVS     r1,#0x82
        0x000002fc:    2053        S       MOVS     r0,#0x53
        0x000002fe:    f7ffff1a    ....    BL       CAMERA_Command ; 0x136
        0x00000302:    2206        ."      MOVS     r2,#6
        0x00000304:    2183        .!      MOVS     r1,#0x83
        0x00000306:    2053        S       MOVS     r0,#0x53
        0x00000308:    f7ffff15    ....    BL       CAMERA_Command ; 0x136
        0x0000030c:    2400        .$      MOVS     r4,#0
        0x0000030e:    e00b        ..      B        0x328 ; CAMERA_Initial + 456
        0x00000310:    4b58        XK      LDR      r3,[pc,#352] ; [0x474] = 0x2a33
        0x00000312:    5d1a        .]      LDRB     r2,[r3,r4]
        0x00000314:    4b58        XK      LDR      r3,[pc,#352] ; [0x478] = 0x5384
        0x00000316:    18e3        ..      ADDS     r3,r4,r3
        0x00000318:    b2d9        ..      UXTB     r1,r3
        0x0000031a:    4b57        WK      LDR      r3,[pc,#348] ; [0x478] = 0x5384
        0x0000031c:    18e3        ..      ADDS     r3,r4,r3
        0x0000031e:    041b        ..      LSLS     r3,r3,#16
        0x00000320:    0e18        ..      LSRS     r0,r3,#24
        0x00000322:    f7ffff08    ....    BL       CAMERA_Command ; 0x136
        0x00000326:    1c64        d.      ADDS     r4,r4,#1
        0x00000328:    2c06        .,      CMP      r4,#6
        0x0000032a:    d3f1        ..      BCC      0x310 ; CAMERA_Initial + 432
        0x0000032c:    2298        ."      MOVS     r2,#0x98
        0x0000032e:    218b        .!      MOVS     r1,#0x8b
        0x00000330:    2053        S       MOVS     r0,#0x53
        0x00000332:    f7ffff00    ....    BL       CAMERA_Command ; 0x136
        0x00000336:    2201        ."      MOVS     r2,#1
        0x00000338:    218a        .!      MOVS     r1,#0x8a
        0x0000033a:    2053        S       MOVS     r0,#0x53
        0x0000033c:    f7fffefb    ....    BL       CAMERA_Command ; 0x136
        0x00000340:    2213        ."      MOVS     r2,#0x13
        0x00000342:    2112        .!      MOVS     r1,#0x12
        0x00000344:    2032        2       MOVS     r0,#0x32
        0x00000346:    f7fffef6    ....    BL       CAMERA_Command ; 0x136
        0x0000034a:    22a3        ."      MOVS     r2,#0xa3
        0x0000034c:    2112        .!      MOVS     r1,#0x12
        0x0000034e:    2032        2       MOVS     r0,#0x32
        0x00000350:    f7fffef1    ....    BL       CAMERA_Command ; 0x136
        0x00000354:    2000        .       MOVS     r0,#0
        0x00000356:    9003        ..      STR      r0,[sp,#0xc]
        0x00000358:    2203        ."      MOVS     r2,#3
        0x0000035a:    2112        .!      MOVS     r1,#0x12
        0x0000035c:    2032        2       MOVS     r0,#0x32
        0x0000035e:    f7fffeea    ....    BL       CAMERA_Command ; 0x136
        0x00000362:    9803        ..      LDR      r0,[sp,#0xc]
        0x00000364:    0102        ..      LSLS     r2,r0,#4
        0x00000366:    2187        .!      MOVS     r1,#0x87
        0x00000368:    2055        U       MOVS     r0,#0x55
        0x0000036a:    f7fffee4    ....    BL       CAMERA_Command ; 0x136
        0x0000036e:    2201        ."      MOVS     r2,#1
        0x00000370:    2188        .!      MOVS     r1,#0x88
        0x00000372:    2055        U       MOVS     r0,#0x55
        0x00000374:    f7fffedf    ....    BL       CAMERA_Command ; 0x136
        0x00000378:    2213        ."      MOVS     r2,#0x13
        0x0000037a:    2112        .!      MOVS     r1,#0x12
        0x0000037c:    2032        2       MOVS     r0,#0x32
        0x0000037e:    f7fffeda    ....    BL       CAMERA_Command ; 0x136
        0x00000382:    22a3        ."      MOVS     r2,#0xa3
        0x00000384:    2112        .!      MOVS     r1,#0x12
        0x00000386:    2032        2       MOVS     r0,#0x32
        0x00000388:    f7fffed5    ....    BL       CAMERA_Command ; 0x136
        0x0000038c:    2000        .       MOVS     r0,#0
        0x0000038e:    9002        ..      STR      r0,[sp,#8]
        0x00000390:    2020                MOVS     r0,#0x20
        0x00000392:    9001        ..      STR      r0,[sp,#4]
        0x00000394:    2203        ."      MOVS     r2,#3
        0x00000396:    2112        .!      MOVS     r1,#0x12
        0x00000398:    2032        2       MOVS     r0,#0x32
        0x0000039a:    f7fffecc    ....    BL       CAMERA_Command ; 0x136
        0x0000039e:    2185        .!      MOVS     r1,#0x85
        0x000003a0:    2055        U       MOVS     r0,#0x55
        0x000003a2:    9a02        ..      LDR      r2,[sp,#8]
        0x000003a4:    f7fffec7    ....    BL       CAMERA_Command ; 0x136
        0x000003a8:    2186        .!      MOVS     r1,#0x86
        0x000003aa:    2055        U       MOVS     r0,#0x55
        0x000003ac:    9a01        ..      LDR      r2,[sp,#4]
        0x000003ae:    f7fffec2    ....    BL       CAMERA_Command ; 0x136
        0x000003b2:    2213        ."      MOVS     r2,#0x13
        0x000003b4:    2112        .!      MOVS     r1,#0x12
        0x000003b6:    2032        2       MOVS     r0,#0x32
        0x000003b8:    f7fffebd    ....    BL       CAMERA_Command ; 0x136
        0x000003bc:    22a3        ."      MOVS     r2,#0xa3
        0x000003be:    2112        .!      MOVS     r1,#0x12
        0x000003c0:    2032        2       MOVS     r0,#0x32
        0x000003c2:    f7fffeb8    ....    BL       CAMERA_Command ; 0x136
        0x000003c6:    2225        %"      MOVS     r2,#0x25
        0x000003c8:    2108        .!      MOVS     r1,#8
        0x000003ca:    2053        S       MOVS     r0,#0x53
        0x000003cc:    f7fffeb3    ....    BL       CAMERA_Command ; 0x136
        0x000003d0:    2208        ."      MOVS     r2,#8
        0x000003d2:    2100        .!      MOVS     r1,#0
        0x000003d4:    2053        S       MOVS     r0,#0x53
        0x000003d6:    f7fffeae    ....    BL       CAMERA_Command ; 0x136
        0x000003da:    2230        0"      MOVS     r2,#0x30
        0x000003dc:    2101        .!      MOVS     r1,#1
        0x000003de:    2053        S       MOVS     r0,#0x53
        0x000003e0:    f7fffea9    ....    BL       CAMERA_Command ; 0x136
        0x000003e4:    2210        ."      MOVS     r2,#0x10
        0x000003e6:    2102        .!      MOVS     r1,#2
        0x000003e8:    2053        S       MOVS     r0,#0x53
        0x000003ea:    f7fffea4    ....    BL       CAMERA_Command ; 0x136
        0x000003ee:    2200        ."      MOVS     r2,#0
        0x000003f0:    2103        .!      MOVS     r1,#3
        0x000003f2:    2053        S       MOVS     r0,#0x53
        0x000003f4:    f7fffe9f    ....    BL       CAMERA_Command ; 0x136
        0x000003f8:    2208        ."      MOVS     r2,#8
        0x000003fa:    2109        .!      MOVS     r1,#9
        0x000003fc:    2053        S       MOVS     r0,#0x53
        0x000003fe:    f7fffe9a    ....    BL       CAMERA_Command ; 0x136
        0x00000402:    2230        0"      MOVS     r2,#0x30
        0x00000404:    210a        .!      MOVS     r1,#0xa
        0x00000406:    2053        S       MOVS     r0,#0x53
        0x00000408:    f7fffe95    ....    BL       CAMERA_Command ; 0x136
        0x0000040c:    2204        ."      MOVS     r2,#4
        0x0000040e:    210b        .!      MOVS     r1,#0xb
        0x00000410:    2053        S       MOVS     r0,#0x53
        0x00000412:    f7fffe90    ....    BL       CAMERA_Command ; 0x136
        0x00000416:    2206        ."      MOVS     r2,#6
        0x00000418:    210c        .!      MOVS     r1,#0xc
        0x0000041a:    2053        S       MOVS     r0,#0x53
        0x0000041c:    f7fffe8b    ....    BL       CAMERA_Command ; 0x136
        0x00000420:    2201        ."      MOVS     r2,#1
        0x00000422:    2123        #!      MOVS     r1,#0x23
        0x00000424:    2030        0       MOVS     r0,#0x30
        0x00000426:    f7fffe86    ....    BL       CAMERA_Command ; 0x136
        0x0000042a:    2204        ."      MOVS     r2,#4
        0x0000042c:    2122        "!      MOVS     r1,#0x22
        0x0000042e:    2030        0       MOVS     r0,#0x30
        0x00000430:    f7fffe81    ....    BL       CAMERA_Command ; 0x136
        0x00000434:    4f11        .O      LDR      r7,[pc,#68] ; [0x47c] = 0x1388
        0x00000436:    bf00        ..      NOP      
        0x00000438:    4809        .H      LDR      r0,[pc,#36] ; [0x460] = 0x300a
        0x0000043a:    3019        .0      ADDS     r0,r0,#0x19
        0x0000043c:    f000f856    ..V.    BL       CAMERA_Read_Reg ; 0x4ec
        0x00000440:    4606        .F      MOV      r6,r0
        0x00000442:    4638        8F      MOV      r0,r7
        0x00000444:    1e79        y.      SUBS     r1,r7,#1
        0x00000446:    b28f        ..      UXTH     r7,r1
        0x00000448:    2800        .(      CMP      r0,#0
        0x0000044a:    d100        ..      BNE      0x44e ; CAMERA_Initial + 750
        0x0000044c:    e004        ..      B        0x458 ; CAMERA_Initial + 760
        0x0000044e:    200a        .       MOVS     r0,#0xa
        0x00000450:    f000fe4a    ..J.    BL       delay ; 0x10e8
        0x00000454:    2e00        ..      CMP      r6,#0
        0x00000456:    d1ef        ..      BNE      0x438 ; CAMERA_Initial + 728
        0x00000458:    bf00        ..      NOP      
        0x0000045a:    b005        ..      ADD      sp,sp,#0x14
        0x0000045c:    bdf0        ..      POP      {r4-r7,pc}
    $d
        0x0000045e:    0000        ..      DCW    0
        0x00000460:    0000300a    .0..    DCD    12298
        0x00000464:    000017ba    ....    DCD    6074
        0x00000468:    00001acf    ....    DCD    6863
        0x0000046c:    00000f5d    ]...    DCD    3933
        0x00000470:    00002a2c    ,*..    DCD    10796
        0x00000474:    00002a33    3*..    DCD    10803
        0x00000478:    00005384    .S..    DCD    21380
        0x0000047c:    00001388    ....    DCD    5000
    $t
    i.CAMERA_NA
    CAMERA_NA
        0x00000480:    b510        ..      PUSH     {r4,lr}
        0x00000482:    2050        P       MOVS     r0,#0x50
        0x00000484:    f000fe30    ..0.    BL       delay ; 0x10e8
        0x00000488:    f000fd9e    ....    BL       Set_CAMERA_SDA ; 0xfc8
        0x0000048c:    f000fd96    ....    BL       Set_CAMERA_SCL ; 0xfbc
        0x00000490:    2050        P       MOVS     r0,#0x50
        0x00000492:    f000fe29    ..).    BL       delay ; 0x10e8
        0x00000496:    f000f89f    ....    BL       Clr_CAMERA_SCL ; 0x5d8
        0x0000049a:    2050        P       MOVS     r0,#0x50
        0x0000049c:    f000fe24    ..$.    BL       delay ; 0x10e8
        0x000004a0:    f000f8a0    ....    BL       Clr_CAMERA_SDA ; 0x5e4
        0x000004a4:    2050        P       MOVS     r0,#0x50
        0x000004a6:    f000fe1f    ....    BL       delay ; 0x10e8
        0x000004aa:    bd10        ..      POP      {r4,pc}
    i.CAMERA_Read_Byte
    CAMERA_Read_Byte
        0x000004ac:    b570        p.      PUSH     {r4-r6,lr}
        0x000004ae:    2400        .$      MOVS     r4,#0
        0x000004b0:    f000fd90    ....    BL       Set_CAMERA_SDA_R ; 0xfd4
        0x000004b4:    2508        .%      MOVS     r5,#8
        0x000004b6:    e013        ..      B        0x4e0 ; CAMERA_Read_Byte + 52
        0x000004b8:    2050        P       MOVS     r0,#0x50
        0x000004ba:    f000fe15    ....    BL       delay ; 0x10e8
        0x000004be:    f000fd7d    ..}.    BL       Set_CAMERA_SCL ; 0xfbc
        0x000004c2:    0660        `.      LSLS     r0,r4,#25
        0x000004c4:    0e04        ..      LSRS     r4,r0,#24
        0x000004c6:    f000fd65    ..e.    BL       Read_CAMERA_SDA ; 0xf94
        0x000004ca:    2800        .(      CMP      r0,#0
        0x000004cc:    d001        ..      BEQ      0x4d2 ; CAMERA_Read_Byte + 38
        0x000004ce:    1c60        `.      ADDS     r0,r4,#1
        0x000004d0:    b2c4        ..      UXTB     r4,r0
        0x000004d2:    2050        P       MOVS     r0,#0x50
        0x000004d4:    f000fe08    ....    BL       delay ; 0x10e8
        0x000004d8:    f000f87e    ..~.    BL       Clr_CAMERA_SCL ; 0x5d8
        0x000004dc:    1e68        h.      SUBS     r0,r5,#1
        0x000004de:    b2c5        ..      UXTB     r5,r0
        0x000004e0:    2d00        .-      CMP      r5,#0
        0x000004e2:    dce9        ..      BGT      0x4b8 ; CAMERA_Read_Byte + 12
        0x000004e4:    f000fd7c    ..|.    BL       Set_CAMERA_SDA_W ; 0xfe0
        0x000004e8:    4620         F      MOV      r0,r4
        0x000004ea:    bd70        p.      POP      {r4-r6,pc}
    i.CAMERA_Read_Reg
    CAMERA_Read_Reg
        0x000004ec:    b570        p.      PUSH     {r4-r6,lr}
        0x000004ee:    4604        .F      MOV      r4,r0
        0x000004f0:    f000f81c    ....    BL       CAMERA_Start ; 0x52c
        0x000004f4:    2078        x       MOVS     r0,#0x78
        0x000004f6:    f000f83a    ..:.    BL       CAMERA_Write_Byte ; 0x56e
        0x000004fa:    1220         .      ASRS     r0,r4,#8
        0x000004fc:    f000f837    ..7.    BL       CAMERA_Write_Byte ; 0x56e
        0x00000500:    b2e0        ..      UXTB     r0,r4
        0x00000502:    f000f834    ..4.    BL       CAMERA_Write_Byte ; 0x56e
        0x00000506:    f000f821    ..!.    BL       CAMERA_Stop ; 0x54c
        0x0000050a:    2064        d       MOVS     r0,#0x64
        0x0000050c:    f000fdec    ....    BL       delay ; 0x10e8
        0x00000510:    f000f80c    ....    BL       CAMERA_Start ; 0x52c
        0x00000514:    2079        y       MOVS     r0,#0x79
        0x00000516:    f000f82a    ..*.    BL       CAMERA_Write_Byte ; 0x56e
        0x0000051a:    f7ffffc7    ....    BL       CAMERA_Read_Byte ; 0x4ac
        0x0000051e:    4605        .F      MOV      r5,r0
        0x00000520:    f7ffffae    ....    BL       CAMERA_NA ; 0x480
        0x00000524:    f000f812    ....    BL       CAMERA_Stop ; 0x54c
        0x00000528:    4628        (F      MOV      r0,r5
        0x0000052a:    bd70        p.      POP      {r4-r6,pc}
    i.CAMERA_Start
    CAMERA_Start
        0x0000052c:    b510        ..      PUSH     {r4,lr}
        0x0000052e:    f000fd4b    ..K.    BL       Set_CAMERA_SDA ; 0xfc8
        0x00000532:    f000fd43    ..C.    BL       Set_CAMERA_SCL ; 0xfbc
        0x00000536:    2050        P       MOVS     r0,#0x50
        0x00000538:    f000fdd6    ....    BL       delay ; 0x10e8
        0x0000053c:    f000f852    ..R.    BL       Clr_CAMERA_SDA ; 0x5e4
        0x00000540:    2050        P       MOVS     r0,#0x50
        0x00000542:    f000fdd1    ....    BL       delay ; 0x10e8
        0x00000546:    f000f847    ..G.    BL       Clr_CAMERA_SCL ; 0x5d8
        0x0000054a:    bd10        ..      POP      {r4,pc}
    i.CAMERA_Stop
    CAMERA_Stop
        0x0000054c:    b510        ..      PUSH     {r4,lr}
        0x0000054e:    f000f849    ..I.    BL       Clr_CAMERA_SDA ; 0x5e4
        0x00000552:    2050        P       MOVS     r0,#0x50
        0x00000554:    f000fdc8    ....    BL       delay ; 0x10e8
        0x00000558:    f000fd30    ..0.    BL       Set_CAMERA_SCL ; 0xfbc
        0x0000055c:    2050        P       MOVS     r0,#0x50
        0x0000055e:    f000fdc3    ....    BL       delay ; 0x10e8
        0x00000562:    f000fd31    ..1.    BL       Set_CAMERA_SDA ; 0xfc8
        0x00000566:    2050        P       MOVS     r0,#0x50
        0x00000568:    f000fdbe    ....    BL       delay ; 0x10e8
        0x0000056c:    bd10        ..      POP      {r4,pc}
    i.CAMERA_Write_Byte
    CAMERA_Write_Byte
        0x0000056e:    b570        p.      PUSH     {r4-r6,lr}
        0x00000570:    4604        .F      MOV      r4,r0
        0x00000572:    2500        .%      MOVS     r5,#0
        0x00000574:    e019        ..      B        0x5aa ; CAMERA_Write_Byte + 60
        0x00000576:    2080        .       MOVS     r0,#0x80
        0x00000578:    4020         @      ANDS     r0,r0,r4
        0x0000057a:    2800        .(      CMP      r0,#0
        0x0000057c:    d002        ..      BEQ      0x584 ; CAMERA_Write_Byte + 22
        0x0000057e:    f000fd23    ..#.    BL       Set_CAMERA_SDA ; 0xfc8
        0x00000582:    e001        ..      B        0x588 ; CAMERA_Write_Byte + 26
        0x00000584:    f000f82e    ....    BL       Clr_CAMERA_SDA ; 0x5e4
        0x00000588:    0660        `.      LSLS     r0,r4,#25
        0x0000058a:    0e04        ..      LSRS     r4,r0,#24
        0x0000058c:    2014        .       MOVS     r0,#0x14
        0x0000058e:    f000fdab    ....    BL       delay ; 0x10e8
        0x00000592:    f000fd13    ....    BL       Set_CAMERA_SCL ; 0xfbc
        0x00000596:    2050        P       MOVS     r0,#0x50
        0x00000598:    f000fda6    ....    BL       delay ; 0x10e8
        0x0000059c:    f000f81c    ....    BL       Clr_CAMERA_SCL ; 0x5d8
        0x000005a0:    2050        P       MOVS     r0,#0x50
        0x000005a2:    f000fda1    ....    BL       delay ; 0x10e8
        0x000005a6:    1c68        h.      ADDS     r0,r5,#1
        0x000005a8:    b2c5        ..      UXTB     r5,r0
        0x000005aa:    2d08        .-      CMP      r5,#8
        0x000005ac:    dbe3        ..      BLT      0x576 ; CAMERA_Write_Byte + 8
        0x000005ae:    f000fd11    ....    BL       Set_CAMERA_SDA_R ; 0xfd4
        0x000005b2:    2050        P       MOVS     r0,#0x50
        0x000005b4:    f000fd98    ....    BL       delay ; 0x10e8
        0x000005b8:    f000fd00    ....    BL       Set_CAMERA_SCL ; 0xfbc
        0x000005bc:    2050        P       MOVS     r0,#0x50
        0x000005be:    f000fd93    ....    BL       delay ; 0x10e8
        0x000005c2:    f000f809    ....    BL       Clr_CAMERA_SCL ; 0x5d8
        0x000005c6:    f000fd0b    ....    BL       Set_CAMERA_SDA_W ; 0xfe0
        0x000005ca:    bd70        p.      POP      {r4-r6,pc}
    i.Clr_CAMERA_PWDN
    Clr_CAMERA_PWDN
        0x000005cc:    2000        .       MOVS     r0,#0
        0x000005ce:    4901        .I      LDR      r1,[pc,#4] ; [0x5d4] = 0x40050000
        0x000005d0:    6048        H`      STR      r0,[r1,#4]
        0x000005d2:    4770        pG      BX       lr
    $d
        0x000005d4:    40050000    ...@    DCD    1074069504
    $t
    i.Clr_CAMERA_SCL
    Clr_CAMERA_SCL
        0x000005d8:    2000        .       MOVS     r0,#0
        0x000005da:    4901        .I      LDR      r1,[pc,#4] ; [0x5e0] = 0x40050000
        0x000005dc:    6088        .`      STR      r0,[r1,#8]
        0x000005de:    4770        pG      BX       lr
    $d
        0x000005e0:    40050000    ...@    DCD    1074069504
    $t
    i.Clr_CAMERA_SDA
    Clr_CAMERA_SDA
        0x000005e4:    2000        .       MOVS     r0,#0
        0x000005e6:    4901        .I      LDR      r1,[pc,#4] ; [0x5ec] = 0x40050000
        0x000005e8:    60c8        .`      STR      r0,[r1,#0xc]
        0x000005ea:    4770        pG      BX       lr
    $d
        0x000005ec:    40050000    ...@    DCD    1074069504
    $t
    i.DebugMonHandler
    DebugMonHandler
        0x000005f0:    4770        pG      BX       lr
    i.HardFaultHandler
    HardFaultHandler
        0x000005f2:    4770        pG      BX       lr
    i.KEY0
    KEY0
        0x000005f4:    b570        p.      PUSH     {r4-r6,lr}
        0x000005f6:    2000        .       MOVS     r0,#0
        0x000005f8:    f000fc98    ....    BL       LED_toggle ; 0xf2c
        0x000005fc:    f000fdca    ....    BL       photo ; 0x1194
        0x00000600:    2400        .$      MOVS     r4,#0
        0x00000602:    e014        ..      B        0x62e ; KEY0 + 58
        0x00000604:    2500        .%      MOVS     r5,#0
        0x00000606:    e00c        ..      B        0x622 ; KEY0 + 46
        0x00000608:    2005        .       MOVS     r0,#5
        0x0000060a:    01c0        ..      LSLS     r0,r0,#7
        0x0000060c:    4360        `C      MULS     r0,r4,r0
        0x0000060e:    4909        .I      LDR      r1,[pc,#36] ; [0x634] = 0x40010000
        0x00000610:    1840        @.      ADDS     r0,r0,r1
        0x00000612:    0069        i.      LSLS     r1,r5,#1
        0x00000614:    5a42        BZ      LDRH     r2,[r0,r1]
        0x00000616:    4621        !F      MOV      r1,r4
        0x00000618:    4628        (F      MOV      r0,r5
        0x0000061a:    f000f88f    ....    BL       LCD_Fast_DrawPoint ; 0x73c
        0x0000061e:    1c68        h.      ADDS     r0,r5,#1
        0x00000620:    b285        ..      UXTH     r5,r0
        0x00000622:    20ff        .       MOVS     r0,#0xff
        0x00000624:    3041        A0      ADDS     r0,r0,#0x41
        0x00000626:    4285        .B      CMP      r5,r0
        0x00000628:    dbee        ..      BLT      0x608 ; KEY0 + 20
        0x0000062a:    1c60        `.      ADDS     r0,r4,#1
        0x0000062c:    b284        ..      UXTH     r4,r0
        0x0000062e:    2cf0        .,      CMP      r4,#0xf0
        0x00000630:    dbe8        ..      BLT      0x604 ; KEY0 + 16
        0x00000632:    bd70        p.      POP      {r4-r6,pc}
    $d
        0x00000634:    40010000    ...@    DCD    1073807360
    $t
    i.KEY1
    KEY1
        0x00000638:    b510        ..      PUSH     {r4,lr}
        0x0000063a:    2001        .       MOVS     r0,#1
        0x0000063c:    f000fc76    ..v.    BL       LED_toggle ; 0xf2c
        0x00000640:    bd10        ..      POP      {r4,pc}
    i.KEY2
    KEY2
        0x00000642:    b510        ..      PUSH     {r4,lr}
        0x00000644:    2002        .       MOVS     r0,#2
        0x00000646:    f000fc71    ..q.    BL       LED_toggle ; 0xf2c
        0x0000064a:    bd10        ..      POP      {r4,pc}
    i.KEY3
    KEY3
        0x0000064c:    b510        ..      PUSH     {r4,lr}
        0x0000064e:    2003        .       MOVS     r0,#3
        0x00000650:    f000fc6c    ..l.    BL       LED_toggle ; 0xf2c
        0x00000654:    bd10        ..      POP      {r4,pc}
        0x00000656:    0000        ..      MOVS     r0,r0
    i.LCD_Clear
    LCD_Clear
        0x00000658:    b570        p.      PUSH     {r4-r6,lr}
        0x0000065a:    4606        .F      MOV      r6,r0
        0x0000065c:    2400        .$      MOVS     r4,#0
        0x0000065e:    4817        .H      LDR      r0,[pc,#92] ; [0x6bc] = 0x2000000c
        0x00000660:    8805        ..      LDRH     r5,[r0,#0]
        0x00000662:    8840        @.      LDRH     r0,[r0,#2]
        0x00000664:    4345        EC      MULS     r5,r0,r5
        0x00000666:    4815        .H      LDR      r0,[pc,#84] ; [0x6bc] = 0x2000000c
        0x00000668:    8880        ..      LDRH     r0,[r0,#4]
        0x0000066a:    4915        .I      LDR      r1,[pc,#84] ; [0x6c0] = 0x6804
        0x0000066c:    4288        .B      CMP      r0,r1
        0x0000066e:    d116        ..      BNE      0x69e ; LCD_Clear + 70
        0x00000670:    4812        .H      LDR      r0,[pc,#72] ; [0x6bc] = 0x2000000c
        0x00000672:    7980        .y      LDRB     r0,[r0,#6]
        0x00000674:    2801        .(      CMP      r0,#1
        0x00000676:    d112        ..      BNE      0x69e ; LCD_Clear + 70
        0x00000678:    2000        .       MOVS     r0,#0
        0x0000067a:    4910        .I      LDR      r1,[pc,#64] ; [0x6bc] = 0x2000000c
        0x0000067c:    7188        .q      STRB     r0,[r1,#6]
        0x0000067e:    202a        *       MOVS     r0,#0x2a
        0x00000680:    8148        H.      STRH     r0,[r1,#0xa]
        0x00000682:    202b        +       MOVS     r0,#0x2b
        0x00000684:    8188        ..      STRH     r0,[r1,#0xc]
        0x00000686:    2100        .!      MOVS     r1,#0
        0x00000688:    4608        .F      MOV      r0,r1
        0x0000068a:    f000fb45    ..E.    BL       LCD_SetCursor ; 0xd18
        0x0000068e:    2001        .       MOVS     r0,#1
        0x00000690:    490a        .I      LDR      r1,[pc,#40] ; [0x6bc] = 0x2000000c
        0x00000692:    7188        .q      STRB     r0,[r1,#6]
        0x00000694:    202b        +       MOVS     r0,#0x2b
        0x00000696:    8148        H.      STRH     r0,[r1,#0xa]
        0x00000698:    202a        *       MOVS     r0,#0x2a
        0x0000069a:    8188        ..      STRH     r0,[r1,#0xc]
        0x0000069c:    e003        ..      B        0x6a6 ; LCD_Clear + 78
        0x0000069e:    2100        .!      MOVS     r1,#0
        0x000006a0:    4608        .F      MOV      r0,r1
        0x000006a2:    f000fb39    ..9.    BL       LCD_SetCursor ; 0xd18
        0x000006a6:    f000fc2f    ../.    BL       LCD_WriteRAM_Prepare ; 0xf08
        0x000006aa:    2400        .$      MOVS     r4,#0
        0x000006ac:    e003        ..      B        0x6b6 ; LCD_Clear + 94
        0x000006ae:    4630        0F      MOV      r0,r6
        0x000006b0:    f000fc05    ....    BL       LCD_WR_DATA ; 0xebe
        0x000006b4:    1c64        d.      ADDS     r4,r4,#1
        0x000006b6:    42ac        .B      CMP      r4,r5
        0x000006b8:    d3f9        ..      BCC      0x6ae ; LCD_Clear + 86
        0x000006ba:    bd70        p.      POP      {r4-r6,pc}
    $d
        0x000006bc:    2000000c    ...     DCD    536870924
        0x000006c0:    00006804    .h..    DCD    26628
    $t
    i.LCD_Display_Dir
    LCD_Display_Dir
        0x000006c4:    b510        ..      PUSH     {r4,lr}
        0x000006c6:    4604        .F      MOV      r4,r0
        0x000006c8:    2c00        .,      CMP      r4,#0
        0x000006ca:    d11e        ..      BNE      0x70a ; LCD_Display_Dir + 70
        0x000006cc:    4918        .I      LDR      r1,[pc,#96] ; [0x730] = 0x2000000c
        0x000006ce:    7188        .q      STRB     r0,[r1,#6]
        0x000006d0:    20f0        .       MOVS     r0,#0xf0
        0x000006d2:    8008        ..      STRH     r0,[r1,#0]
        0x000006d4:    20ff        .       MOVS     r0,#0xff
        0x000006d6:    3041        A0      ADDS     r0,r0,#0x41
        0x000006d8:    8048        H.      STRH     r0,[r1,#2]
        0x000006da:    202c        ,       MOVS     r0,#0x2c
        0x000006dc:    8108        ..      STRH     r0,[r1,#8]
        0x000006de:    202a        *       MOVS     r0,#0x2a
        0x000006e0:    8148        H.      STRH     r0,[r1,#0xa]
        0x000006e2:    202b        +       MOVS     r0,#0x2b
        0x000006e4:    8188        ..      STRH     r0,[r1,#0xc]
        0x000006e6:    4608        .F      MOV      r0,r1
        0x000006e8:    8880        ..      LDRH     r0,[r0,#4]
        0x000006ea:    4912        .I      LDR      r1,[pc,#72] ; [0x734] = 0x6804
        0x000006ec:    4288        .B      CMP      r0,r1
        0x000006ee:    d004        ..      BEQ      0x6fa ; LCD_Display_Dir + 54
        0x000006f0:    480f        .H      LDR      r0,[pc,#60] ; [0x730] = 0x2000000c
        0x000006f2:    8880        ..      LDRH     r0,[r0,#4]
        0x000006f4:    4910        .I      LDR      r1,[pc,#64] ; [0x738] = 0x5310
        0x000006f6:    4288        .B      CMP      r0,r1
        0x000006f8:    d115        ..      BNE      0x726 ; LCD_Display_Dir + 98
        0x000006fa:    20ff        .       MOVS     r0,#0xff
        0x000006fc:    3041        A0      ADDS     r0,r0,#0x41
        0x000006fe:    490c        .I      LDR      r1,[pc,#48] ; [0x730] = 0x2000000c
        0x00000700:    8008        ..      STRH     r0,[r1,#0]
        0x00000702:    20ff        .       MOVS     r0,#0xff
        0x00000704:    30e1        .0      ADDS     r0,r0,#0xe1
        0x00000706:    8048        H.      STRH     r0,[r1,#2]
        0x00000708:    e00d        ..      B        0x726 ; LCD_Display_Dir + 98
        0x0000070a:    2001        .       MOVS     r0,#1
        0x0000070c:    4908        .I      LDR      r1,[pc,#32] ; [0x730] = 0x2000000c
        0x0000070e:    7188        .q      STRB     r0,[r1,#6]
        0x00000710:    20ff        .       MOVS     r0,#0xff
        0x00000712:    3041        A0      ADDS     r0,r0,#0x41
        0x00000714:    8008        ..      STRH     r0,[r1,#0]
        0x00000716:    20f0        .       MOVS     r0,#0xf0
        0x00000718:    8048        H.      STRH     r0,[r1,#2]
        0x0000071a:    202c        ,       MOVS     r0,#0x2c
        0x0000071c:    8108        ..      STRH     r0,[r1,#8]
        0x0000071e:    202a        *       MOVS     r0,#0x2a
        0x00000720:    8148        H.      STRH     r0,[r1,#0xa]
        0x00000722:    202b        +       MOVS     r0,#0x2b
        0x00000724:    8188        ..      STRH     r0,[r1,#0xc]
        0x00000726:    2000        .       MOVS     r0,#0
        0x00000728:    f000f982    ....    BL       LCD_Scan_Dir ; 0xa30
        0x0000072c:    bd10        ..      POP      {r4,pc}
    $d
        0x0000072e:    0000        ..      DCW    0
        0x00000730:    2000000c    ...     DCD    536870924
        0x00000734:    00006804    .h..    DCD    26628
        0x00000738:    00005310    .S..    DCD    21264
    $t
    i.LCD_Fast_DrawPoint
    LCD_Fast_DrawPoint
        0x0000073c:    b530        0.      PUSH     {r4,r5,lr}
        0x0000073e:    4603        .F      MOV      r3,r0
        0x00000740:    460c        .F      MOV      r4,r1
        0x00000742:    4615        .F      MOV      r5,r2
        0x00000744:    4913        .I      LDR      r1,[pc,#76] ; [0x794] = 0x2000000c
        0x00000746:    8948        H.      LDRH     r0,[r1,#0xa]
        0x00000748:    f000fbcc    ....    BL       LCD_WR_REG ; 0xee4
        0x0000074c:    1218        ..      ASRS     r0,r3,#8
        0x0000074e:    f000fbb6    ....    BL       LCD_WR_DATA ; 0xebe
        0x00000752:    b2d8        ..      UXTB     r0,r3
        0x00000754:    f000fbb3    ....    BL       LCD_WR_DATA ; 0xebe
        0x00000758:    490e        .I      LDR      r1,[pc,#56] ; [0x794] = 0x2000000c
        0x0000075a:    8988        ..      LDRH     r0,[r1,#0xc]
        0x0000075c:    f000fbc2    ....    BL       LCD_WR_REG ; 0xee4
        0x00000760:    1220         .      ASRS     r0,r4,#8
        0x00000762:    f000fbac    ....    BL       LCD_WR_DATA ; 0xebe
        0x00000766:    b2e0        ..      UXTB     r0,r4
        0x00000768:    f000fba9    ....    BL       LCD_WR_DATA ; 0xebe
        0x0000076c:    2000        .       MOVS     r0,#0
        0x0000076e:    2105        .!      MOVS     r1,#5
        0x00000770:    0709        ..      LSLS     r1,r1,#28
        0x00000772:    6048        H`      STR      r0,[r1,#4]
        0x00000774:    6008        .`      STR      r0,[r1,#0]
        0x00000776:    4907        .I      LDR      r1,[pc,#28] ; [0x794] = 0x2000000c
        0x00000778:    8908        ..      LDRH     r0,[r1,#8]
        0x0000077a:    f000fbf3    ....    BL       MakeData ; 0xf64
        0x0000077e:    2000        .       MOVS     r0,#0
        0x00000780:    2105        .!      MOVS     r1,#5
        0x00000782:    0709        ..      LSLS     r1,r1,#28
        0x00000784:    6088        .`      STR      r0,[r1,#8]
        0x00000786:    2001        .       MOVS     r0,#1
        0x00000788:    6088        .`      STR      r0,[r1,#8]
        0x0000078a:    6008        .`      STR      r0,[r1,#0]
        0x0000078c:    4628        (F      MOV      r0,r5
        0x0000078e:    f000fb96    ....    BL       LCD_WR_DATA ; 0xebe
        0x00000792:    bd30        0.      POP      {r4,r5,pc}
    $d
        0x00000794:    2000000c    ...     DCD    536870924
    $t
    i.LCD_Init
    LCD_Init
        0x00000798:    b500        ..      PUSH     {lr}
        0x0000079a:    2001        .       MOVS     r0,#1
        0x0000079c:    2105        .!      MOVS     r1,#5
        0x0000079e:    0709        ..      LSLS     r1,r1,#28
        0x000007a0:    6108        .a      STR      r0,[r1,#0x10]
        0x000007a2:    489f        .H      LDR      r0,[pc,#636] ; [0xa20] = 0x2625a0
        0x000007a4:    f000fca0    ....    BL       delay ; 0x10e8
        0x000007a8:    2000        .       MOVS     r0,#0
        0x000007aa:    2105        .!      MOVS     r1,#5
        0x000007ac:    0709        ..      LSLS     r1,r1,#28
        0x000007ae:    6108        .a      STR      r0,[r1,#0x10]
        0x000007b0:    489b        .H      LDR      r0,[pc,#620] ; [0xa20] = 0x2625a0
        0x000007b2:    f000fc99    ....    BL       delay ; 0x10e8
        0x000007b6:    2001        .       MOVS     r0,#1
        0x000007b8:    2105        .!      MOVS     r1,#5
        0x000007ba:    0709        ..      LSLS     r1,r1,#28
        0x000007bc:    6108        .a      STR      r0,[r1,#0x10]
        0x000007be:    4898        .H      LDR      r0,[pc,#608] ; [0xa20] = 0x2625a0
        0x000007c0:    f000fc92    ....    BL       delay ; 0x10e8
        0x000007c4:    2001        .       MOVS     r0,#1
        0x000007c6:    2105        .!      MOVS     r1,#5
        0x000007c8:    0709        ..      LSLS     r1,r1,#28
        0x000007ca:    60c8        .`      STR      r0,[r1,#0xc]
        0x000007cc:    4895        .H      LDR      r0,[pc,#596] ; [0xa24] = 0x9341
        0x000007ce:    4996        .I      LDR      r1,[pc,#600] ; [0xa28] = 0x2000000c
        0x000007d0:    8088        ..      STRH     r0,[r1,#4]
        0x000007d2:    4608        .F      MOV      r0,r1
        0x000007d4:    8880        ..      LDRH     r0,[r0,#4]
        0x000007d6:    4993        .I      LDR      r1,[pc,#588] ; [0xa24] = 0x9341
        0x000007d8:    4288        .B      CMP      r0,r1
        0x000007da:    d17c        |.      BNE      0x8d6 ; LCD_Init + 318
        0x000007dc:    20cf        .       MOVS     r0,#0xcf
        0x000007de:    f000fb81    ....    BL       LCD_WR_REG ; 0xee4
        0x000007e2:    2000        .       MOVS     r0,#0
        0x000007e4:    f000fb6b    ..k.    BL       LCD_WR_DATA ; 0xebe
        0x000007e8:    20c1        .       MOVS     r0,#0xc1
        0x000007ea:    f000fb68    ..h.    BL       LCD_WR_DATA ; 0xebe
        0x000007ee:    2030        0       MOVS     r0,#0x30
        0x000007f0:    f000fb65    ..e.    BL       LCD_WR_DATA ; 0xebe
        0x000007f4:    20ed        .       MOVS     r0,#0xed
        0x000007f6:    f000fb75    ..u.    BL       LCD_WR_REG ; 0xee4
        0x000007fa:    2064        d       MOVS     r0,#0x64
        0x000007fc:    f000fb5f    .._.    BL       LCD_WR_DATA ; 0xebe
        0x00000800:    2003        .       MOVS     r0,#3
        0x00000802:    f000fb5c    ..\.    BL       LCD_WR_DATA ; 0xebe
        0x00000806:    2012        .       MOVS     r0,#0x12
        0x00000808:    f000fb59    ..Y.    BL       LCD_WR_DATA ; 0xebe
        0x0000080c:    2081        .       MOVS     r0,#0x81
        0x0000080e:    f000fb56    ..V.    BL       LCD_WR_DATA ; 0xebe
        0x00000812:    20e8        .       MOVS     r0,#0xe8
        0x00000814:    f000fb66    ..f.    BL       LCD_WR_REG ; 0xee4
        0x00000818:    2085        .       MOVS     r0,#0x85
        0x0000081a:    f000fb50    ..P.    BL       LCD_WR_DATA ; 0xebe
        0x0000081e:    2010        .       MOVS     r0,#0x10
        0x00000820:    f000fb4d    ..M.    BL       LCD_WR_DATA ; 0xebe
        0x00000824:    207a        z       MOVS     r0,#0x7a
        0x00000826:    f000fb4a    ..J.    BL       LCD_WR_DATA ; 0xebe
        0x0000082a:    20cb        .       MOVS     r0,#0xcb
        0x0000082c:    f000fb5a    ..Z.    BL       LCD_WR_REG ; 0xee4
        0x00000830:    2039        9       MOVS     r0,#0x39
        0x00000832:    f000fb44    ..D.    BL       LCD_WR_DATA ; 0xebe
        0x00000836:    202c        ,       MOVS     r0,#0x2c
        0x00000838:    f000fb41    ..A.    BL       LCD_WR_DATA ; 0xebe
        0x0000083c:    2000        .       MOVS     r0,#0
        0x0000083e:    f000fb3e    ..>.    BL       LCD_WR_DATA ; 0xebe
        0x00000842:    2034        4       MOVS     r0,#0x34
        0x00000844:    f000fb3b    ..;.    BL       LCD_WR_DATA ; 0xebe
        0x00000848:    2002        .       MOVS     r0,#2
        0x0000084a:    f000fb38    ..8.    BL       LCD_WR_DATA ; 0xebe
        0x0000084e:    20f7        .       MOVS     r0,#0xf7
        0x00000850:    f000fb48    ..H.    BL       LCD_WR_REG ; 0xee4
        0x00000854:    2020                MOVS     r0,#0x20
        0x00000856:    f000fb32    ..2.    BL       LCD_WR_DATA ; 0xebe
        0x0000085a:    20ea        .       MOVS     r0,#0xea
        0x0000085c:    f000fb42    ..B.    BL       LCD_WR_REG ; 0xee4
        0x00000860:    2000        .       MOVS     r0,#0
        0x00000862:    f000fb2c    ..,.    BL       LCD_WR_DATA ; 0xebe
        0x00000866:    2000        .       MOVS     r0,#0
        0x00000868:    f000fb29    ..).    BL       LCD_WR_DATA ; 0xebe
        0x0000086c:    20c0        .       MOVS     r0,#0xc0
        0x0000086e:    f000fb39    ..9.    BL       LCD_WR_REG ; 0xee4
        0x00000872:    201b        .       MOVS     r0,#0x1b
        0x00000874:    f000fb23    ..#.    BL       LCD_WR_DATA ; 0xebe
        0x00000878:    20c1        .       MOVS     r0,#0xc1
        0x0000087a:    f000fb33    ..3.    BL       LCD_WR_REG ; 0xee4
        0x0000087e:    2001        .       MOVS     r0,#1
        0x00000880:    f000fb1d    ....    BL       LCD_WR_DATA ; 0xebe
        0x00000884:    20c5        .       MOVS     r0,#0xc5
        0x00000886:    f000fb2d    ..-.    BL       LCD_WR_REG ; 0xee4
        0x0000088a:    2030        0       MOVS     r0,#0x30
        0x0000088c:    f000fb17    ....    BL       LCD_WR_DATA ; 0xebe
        0x00000890:    2030        0       MOVS     r0,#0x30
        0x00000892:    f000fb14    ....    BL       LCD_WR_DATA ; 0xebe
        0x00000896:    20c7        .       MOVS     r0,#0xc7
        0x00000898:    f000fb24    ..$.    BL       LCD_WR_REG ; 0xee4
        0x0000089c:    20b7        .       MOVS     r0,#0xb7
        0x0000089e:    f000fb0e    ....    BL       LCD_WR_DATA ; 0xebe
        0x000008a2:    2036        6       MOVS     r0,#0x36
        0x000008a4:    f000fb1e    ....    BL       LCD_WR_REG ; 0xee4
        0x000008a8:    2048        H       MOVS     r0,#0x48
        0x000008aa:    f000fb08    ....    BL       LCD_WR_DATA ; 0xebe
        0x000008ae:    203a        :       MOVS     r0,#0x3a
        0x000008b0:    f000fb18    ....    BL       LCD_WR_REG ; 0xee4
        0x000008b4:    2055        U       MOVS     r0,#0x55
        0x000008b6:    f000fb02    ....    BL       LCD_WR_DATA ; 0xebe
        0x000008ba:    20b1        .       MOVS     r0,#0xb1
        0x000008bc:    f000fb12    ....    BL       LCD_WR_REG ; 0xee4
        0x000008c0:    2000        .       MOVS     r0,#0
        0x000008c2:    f000fafc    ....    BL       LCD_WR_DATA ; 0xebe
        0x000008c6:    201a        .       MOVS     r0,#0x1a
        0x000008c8:    f000faf9    ....    BL       LCD_WR_DATA ; 0xebe
        0x000008cc:    20b6        .       MOVS     r0,#0xb6
        0x000008ce:    f000fb09    ....    BL       LCD_WR_REG ; 0xee4
        0x000008d2:    200a        .       MOVS     r0,#0xa
        0x000008d4:    e000        ..      B        0x8d8 ; LCD_Init + 320
        0x000008d6:    e097        ..      B        0xa08 ; LCD_Init + 624
        0x000008d8:    f000faf1    ....    BL       LCD_WR_DATA ; 0xebe
        0x000008dc:    20a2        .       MOVS     r0,#0xa2
        0x000008de:    f000faee    ....    BL       LCD_WR_DATA ; 0xebe
        0x000008e2:    20f2        .       MOVS     r0,#0xf2
        0x000008e4:    f000fafe    ....    BL       LCD_WR_REG ; 0xee4
        0x000008e8:    2000        .       MOVS     r0,#0
        0x000008ea:    f000fae8    ....    BL       LCD_WR_DATA ; 0xebe
        0x000008ee:    2026        &       MOVS     r0,#0x26
        0x000008f0:    f000faf8    ....    BL       LCD_WR_REG ; 0xee4
        0x000008f4:    2001        .       MOVS     r0,#1
        0x000008f6:    f000fae2    ....    BL       LCD_WR_DATA ; 0xebe
        0x000008fa:    20e0        .       MOVS     r0,#0xe0
        0x000008fc:    f000faf2    ....    BL       LCD_WR_REG ; 0xee4
        0x00000900:    200f        .       MOVS     r0,#0xf
        0x00000902:    f000fadc    ....    BL       LCD_WR_DATA ; 0xebe
        0x00000906:    202a        *       MOVS     r0,#0x2a
        0x00000908:    f000fad9    ....    BL       LCD_WR_DATA ; 0xebe
        0x0000090c:    2028        (       MOVS     r0,#0x28
        0x0000090e:    f000fad6    ....    BL       LCD_WR_DATA ; 0xebe
        0x00000912:    2008        .       MOVS     r0,#8
        0x00000914:    f000fad3    ....    BL       LCD_WR_DATA ; 0xebe
        0x00000918:    200e        .       MOVS     r0,#0xe
        0x0000091a:    f000fad0    ....    BL       LCD_WR_DATA ; 0xebe
        0x0000091e:    2008        .       MOVS     r0,#8
        0x00000920:    f000facd    ....    BL       LCD_WR_DATA ; 0xebe
        0x00000924:    2054        T       MOVS     r0,#0x54
        0x00000926:    f000faca    ....    BL       LCD_WR_DATA ; 0xebe
        0x0000092a:    20a9        .       MOVS     r0,#0xa9
        0x0000092c:    f000fac7    ....    BL       LCD_WR_DATA ; 0xebe
        0x00000930:    2043        C       MOVS     r0,#0x43
        0x00000932:    f000fac4    ....    BL       LCD_WR_DATA ; 0xebe
        0x00000936:    200a        .       MOVS     r0,#0xa
        0x00000938:    f000fac1    ....    BL       LCD_WR_DATA ; 0xebe
        0x0000093c:    200f        .       MOVS     r0,#0xf
        0x0000093e:    f000fabe    ....    BL       LCD_WR_DATA ; 0xebe
        0x00000942:    2000        .       MOVS     r0,#0
        0x00000944:    f000fabb    ....    BL       LCD_WR_DATA ; 0xebe
        0x00000948:    2000        .       MOVS     r0,#0
        0x0000094a:    f000fab8    ....    BL       LCD_WR_DATA ; 0xebe
        0x0000094e:    2000        .       MOVS     r0,#0
        0x00000950:    f000fab5    ....    BL       LCD_WR_DATA ; 0xebe
        0x00000954:    2000        .       MOVS     r0,#0
        0x00000956:    f000fab2    ....    BL       LCD_WR_DATA ; 0xebe
        0x0000095a:    20e1        .       MOVS     r0,#0xe1
        0x0000095c:    f000fac2    ....    BL       LCD_WR_REG ; 0xee4
        0x00000960:    2000        .       MOVS     r0,#0
        0x00000962:    f000faac    ....    BL       LCD_WR_DATA ; 0xebe
        0x00000966:    2015        .       MOVS     r0,#0x15
        0x00000968:    f000faa9    ....    BL       LCD_WR_DATA ; 0xebe
        0x0000096c:    2017        .       MOVS     r0,#0x17
        0x0000096e:    f000faa6    ....    BL       LCD_WR_DATA ; 0xebe
        0x00000972:    2007        .       MOVS     r0,#7
        0x00000974:    f000faa3    ....    BL       LCD_WR_DATA ; 0xebe
        0x00000978:    2011        .       MOVS     r0,#0x11
        0x0000097a:    f000faa0    ....    BL       LCD_WR_DATA ; 0xebe
        0x0000097e:    2006        .       MOVS     r0,#6
        0x00000980:    f000fa9d    ....    BL       LCD_WR_DATA ; 0xebe
        0x00000984:    202b        +       MOVS     r0,#0x2b
        0x00000986:    f000fa9a    ....    BL       LCD_WR_DATA ; 0xebe
        0x0000098a:    2056        V       MOVS     r0,#0x56
        0x0000098c:    f000fa97    ....    BL       LCD_WR_DATA ; 0xebe
        0x00000990:    203c        <       MOVS     r0,#0x3c
        0x00000992:    f000fa94    ....    BL       LCD_WR_DATA ; 0xebe
        0x00000996:    2005        .       MOVS     r0,#5
        0x00000998:    f000fa91    ....    BL       LCD_WR_DATA ; 0xebe
        0x0000099c:    2010        .       MOVS     r0,#0x10
        0x0000099e:    f000fa8e    ....    BL       LCD_WR_DATA ; 0xebe
        0x000009a2:    200f        .       MOVS     r0,#0xf
        0x000009a4:    f000fa8b    ....    BL       LCD_WR_DATA ; 0xebe
        0x000009a8:    203f        ?       MOVS     r0,#0x3f
        0x000009aa:    f000fa88    ....    BL       LCD_WR_DATA ; 0xebe
        0x000009ae:    203f        ?       MOVS     r0,#0x3f
        0x000009b0:    f000fa85    ....    BL       LCD_WR_DATA ; 0xebe
        0x000009b4:    200f        .       MOVS     r0,#0xf
        0x000009b6:    f000fa82    ....    BL       LCD_WR_DATA ; 0xebe
        0x000009ba:    202b        +       MOVS     r0,#0x2b
        0x000009bc:    f000fa92    ....    BL       LCD_WR_REG ; 0xee4
        0x000009c0:    2000        .       MOVS     r0,#0
        0x000009c2:    f000fa7c    ..|.    BL       LCD_WR_DATA ; 0xebe
        0x000009c6:    2000        .       MOVS     r0,#0
        0x000009c8:    f000fa79    ..y.    BL       LCD_WR_DATA ; 0xebe
        0x000009cc:    2001        .       MOVS     r0,#1
        0x000009ce:    f000fa76    ..v.    BL       LCD_WR_DATA ; 0xebe
        0x000009d2:    203f        ?       MOVS     r0,#0x3f
        0x000009d4:    f000fa73    ..s.    BL       LCD_WR_DATA ; 0xebe
        0x000009d8:    202a        *       MOVS     r0,#0x2a
        0x000009da:    f000fa83    ....    BL       LCD_WR_REG ; 0xee4
        0x000009de:    2000        .       MOVS     r0,#0
        0x000009e0:    f000fa6d    ..m.    BL       LCD_WR_DATA ; 0xebe
        0x000009e4:    2000        .       MOVS     r0,#0
        0x000009e6:    f000fa6a    ..j.    BL       LCD_WR_DATA ; 0xebe
        0x000009ea:    2000        .       MOVS     r0,#0
        0x000009ec:    f000fa67    ..g.    BL       LCD_WR_DATA ; 0xebe
        0x000009f0:    20ef        .       MOVS     r0,#0xef
        0x000009f2:    f000fa64    ..d.    BL       LCD_WR_DATA ; 0xebe
        0x000009f6:    2011        .       MOVS     r0,#0x11
        0x000009f8:    f000fa74    ..t.    BL       LCD_WR_REG ; 0xee4
        0x000009fc:    480b        .H      LDR      r0,[pc,#44] ; [0xa2c] = 0x5b8d80
        0x000009fe:    f000fb73    ..s.    BL       delay ; 0x10e8
        0x00000a02:    2029        )       MOVS     r0,#0x29
        0x00000a04:    f000fa6e    ..n.    BL       LCD_WR_REG ; 0xee4
        0x00000a08:    2001        .       MOVS     r0,#1
        0x00000a0a:    f7fffe5b    ..[.    BL       LCD_Display_Dir ; 0x6c4
        0x00000a0e:    2001        .       MOVS     r0,#1
        0x00000a10:    2105        .!      MOVS     r1,#5
        0x00000a12:    0709        ..      LSLS     r1,r1,#28
        0x00000a14:    6148        Ha      STR      r0,[r1,#0x14]
        0x00000a16:    2000        .       MOVS     r0,#0
        0x00000a18:    f7fffe1e    ....    BL       LCD_Clear ; 0x658
        0x00000a1c:    bd00        ..      POP      {pc}
    $d
        0x00000a1e:    0000        ..      DCW    0
        0x00000a20:    002625a0    .%&.    DCD    2500000
        0x00000a24:    00009341    A...    DCD    37697
        0x00000a28:    2000000c    ...     DCD    536870924
        0x00000a2c:    005b8d80    ..[.    DCD    6000000
    $t
    i.LCD_Scan_Dir
    LCD_Scan_Dir
        0x00000a30:    b5f0        ..      PUSH     {r4-r7,lr}
        0x00000a32:    4605        .F      MOV      r5,r0
        0x00000a34:    2400        .$      MOVS     r4,#0
        0x00000a36:    2700        .'      MOVS     r7,#0
        0x00000a38:    48b1        .H      LDR      r0,[pc,#708] ; [0xd00] = 0x2000000c
        0x00000a3a:    7980        .y      LDRB     r0,[r0,#6]
        0x00000a3c:    2801        .(      CMP      r0,#1
        0x00000a3e:    d109        ..      BNE      0xa54 ; LCD_Scan_Dir + 36
        0x00000a40:    48af        .H      LDR      r0,[pc,#700] ; [0xd00] = 0x2000000c
        0x00000a42:    8880        ..      LDRH     r0,[r0,#4]
        0x00000a44:    49af        .I      LDR      r1,[pc,#700] ; [0xd04] = 0x6804
        0x00000a46:    4288        .B      CMP      r0,r1
        0x00000a48:    d004        ..      BEQ      0xa54 ; LCD_Scan_Dir + 36
        0x00000a4a:    48ad        .H      LDR      r0,[pc,#692] ; [0xd00] = 0x2000000c
        0x00000a4c:    8880        ..      LDRH     r0,[r0,#4]
        0x00000a4e:    49ae        .I      LDR      r1,[pc,#696] ; [0xd08] = 0x1963
        0x00000a50:    4288        .B      CMP      r0,r1
        0x00000a52:    d108        ..      BNE      0xa66 ; LCD_Scan_Dir + 54
        0x00000a54:    48aa        .H      LDR      r0,[pc,#680] ; [0xd00] = 0x2000000c
        0x00000a56:    7980        .y      LDRB     r0,[r0,#6]
        0x00000a58:    2800        .(      CMP      r0,#0
        0x00000a5a:    d11d        ..      BNE      0xa98 ; LCD_Scan_Dir + 104
        0x00000a5c:    48a8        .H      LDR      r0,[pc,#672] ; [0xd00] = 0x2000000c
        0x00000a5e:    8880        ..      LDRH     r0,[r0,#4]
        0x00000a60:    49a9        .I      LDR      r1,[pc,#676] ; [0xd08] = 0x1963
        0x00000a62:    4288        .B      CMP      r0,r1
        0x00000a64:    d118        ..      BNE      0xa98 ; LCD_Scan_Dir + 104
        0x00000a66:    002b        +.      MOVS     r3,r5
        0x00000a68:    f000fb12    ....    BL       __ARM_common_switch8 ; 0x1090
    $d
        0x00000a6c:    09070508    ....    DCD    151454984
        0x00000a70:    110f0d0b    ....    DCD    286199051
        0x00000a74:    1513        ..      DCW    5395
    $t
        0x00000a76:    2506        .%      MOVS     r5,#6
        0x00000a78:    e00d        ..      B        0xa96 ; LCD_Scan_Dir + 102
        0x00000a7a:    2507        .%      MOVS     r5,#7
        0x00000a7c:    e00b        ..      B        0xa96 ; LCD_Scan_Dir + 102
        0x00000a7e:    2504        .%      MOVS     r5,#4
        0x00000a80:    e009        ..      B        0xa96 ; LCD_Scan_Dir + 102
        0x00000a82:    2505        .%      MOVS     r5,#5
        0x00000a84:    e007        ..      B        0xa96 ; LCD_Scan_Dir + 102
        0x00000a86:    2501        .%      MOVS     r5,#1
        0x00000a88:    e005        ..      B        0xa96 ; LCD_Scan_Dir + 102
        0x00000a8a:    2500        .%      MOVS     r5,#0
        0x00000a8c:    e003        ..      B        0xa96 ; LCD_Scan_Dir + 102
        0x00000a8e:    2503        .%      MOVS     r5,#3
        0x00000a90:    e001        ..      B        0xa96 ; LCD_Scan_Dir + 102
        0x00000a92:    2502        .%      MOVS     r5,#2
        0x00000a94:    bf00        ..      NOP      
        0x00000a96:    bf00        ..      NOP      
        0x00000a98:    4899        .H      LDR      r0,[pc,#612] ; [0xd00] = 0x2000000c
        0x00000a9a:    8880        ..      LDRH     r0,[r0,#4]
        0x00000a9c:    499b        .I      LDR      r1,[pc,#620] ; [0xd0c] = 0x9341
        0x00000a9e:    4288        .B      CMP      r0,r1
        0x00000aa0:    d013        ..      BEQ      0xaca ; LCD_Scan_Dir + 154
        0x00000aa2:    4897        .H      LDR      r0,[pc,#604] ; [0xd00] = 0x2000000c
        0x00000aa4:    8880        ..      LDRH     r0,[r0,#4]
        0x00000aa6:    4997        .I      LDR      r1,[pc,#604] ; [0xd04] = 0x6804
        0x00000aa8:    4288        .B      CMP      r0,r1
        0x00000aaa:    d00e        ..      BEQ      0xaca ; LCD_Scan_Dir + 154
        0x00000aac:    4894        .H      LDR      r0,[pc,#592] ; [0xd00] = 0x2000000c
        0x00000aae:    8880        ..      LDRH     r0,[r0,#4]
        0x00000ab0:    4997        .I      LDR      r1,[pc,#604] ; [0xd10] = 0x5310
        0x00000ab2:    4288        .B      CMP      r0,r1
        0x00000ab4:    d009        ..      BEQ      0xaca ; LCD_Scan_Dir + 154
        0x00000ab6:    4892        .H      LDR      r0,[pc,#584] ; [0xd00] = 0x2000000c
        0x00000ab8:    8880        ..      LDRH     r0,[r0,#4]
        0x00000aba:    4996        .I      LDR      r1,[pc,#600] ; [0xd14] = 0x5510
        0x00000abc:    4288        .B      CMP      r0,r1
        0x00000abe:    d004        ..      BEQ      0xaca ; LCD_Scan_Dir + 154
        0x00000ac0:    488f        .H      LDR      r0,[pc,#572] ; [0xd00] = 0x2000000c
        0x00000ac2:    8880        ..      LDRH     r0,[r0,#4]
        0x00000ac4:    4990        .I      LDR      r1,[pc,#576] ; [0xd08] = 0x1963
        0x00000ac6:    4288        .B      CMP      r0,r1
        0x00000ac8:    d17e        ~.      BNE      0xbc8 ; LCD_Scan_Dir + 408
        0x00000aca:    002b        +.      MOVS     r3,r5
        0x00000acc:    f000fae0    ....    BL       __ARM_common_switch8 ; 0x1090
    $d
        0x00000ad0:    0a070508    ....    DCD    168232200
        0x00000ad4:    1613100d    ....    DCD    370348045
        0x00000ad8:    1c19        ..      DCW    7193
    $t
        0x00000ada:    bf00        ..      NOP      
        0x00000adc:    e014        ..      B        0xb08 ; LCD_Scan_Dir + 216
        0x00000ade:    2080        .       MOVS     r0,#0x80
        0x00000ae0:    4304        .C      ORRS     r4,r4,r0
        0x00000ae2:    e011        ..      B        0xb08 ; LCD_Scan_Dir + 216
        0x00000ae4:    2040        @       MOVS     r0,#0x40
        0x00000ae6:    4304        .C      ORRS     r4,r4,r0
        0x00000ae8:    e00e        ..      B        0xb08 ; LCD_Scan_Dir + 216
        0x00000aea:    20c0        .       MOVS     r0,#0xc0
        0x00000aec:    4304        .C      ORRS     r4,r4,r0
        0x00000aee:    e00b        ..      B        0xb08 ; LCD_Scan_Dir + 216
        0x00000af0:    2020                MOVS     r0,#0x20
        0x00000af2:    4304        .C      ORRS     r4,r4,r0
        0x00000af4:    e008        ..      B        0xb08 ; LCD_Scan_Dir + 216
        0x00000af6:    2060        `       MOVS     r0,#0x60
        0x00000af8:    4304        .C      ORRS     r4,r4,r0
        0x00000afa:    e005        ..      B        0xb08 ; LCD_Scan_Dir + 216
        0x00000afc:    20a0        .       MOVS     r0,#0xa0
        0x00000afe:    4304        .C      ORRS     r4,r4,r0
        0x00000b00:    e002        ..      B        0xb08 ; LCD_Scan_Dir + 216
        0x00000b02:    20e0        .       MOVS     r0,#0xe0
        0x00000b04:    4304        .C      ORRS     r4,r4,r0
        0x00000b06:    bf00        ..      NOP      
        0x00000b08:    bf00        ..      NOP      
        0x00000b0a:    487d        }H      LDR      r0,[pc,#500] ; [0xd00] = 0x2000000c
        0x00000b0c:    8880        ..      LDRH     r0,[r0,#4]
        0x00000b0e:    4981        .I      LDR      r1,[pc,#516] ; [0xd14] = 0x5510
        0x00000b10:    4288        .B      CMP      r0,r1
        0x00000b12:    d102        ..      BNE      0xb1a ; LCD_Scan_Dir + 234
        0x00000b14:    271b        .'      MOVS     r7,#0x1b
        0x00000b16:    027f        ..      LSLS     r7,r7,#9
        0x00000b18:    e000        ..      B        0xb1c ; LCD_Scan_Dir + 236
        0x00000b1a:    2736        6'      MOVS     r7,#0x36
        0x00000b1c:    4878        xH      LDR      r0,[pc,#480] ; [0xd00] = 0x2000000c
        0x00000b1e:    8880        ..      LDRH     r0,[r0,#4]
        0x00000b20:    497b        {I      LDR      r1,[pc,#492] ; [0xd10] = 0x5310
        0x00000b22:    4288        .B      CMP      r0,r1
        0x00000b24:    d00b        ..      BEQ      0xb3e ; LCD_Scan_Dir + 270
        0x00000b26:    4876        vH      LDR      r0,[pc,#472] ; [0xd00] = 0x2000000c
        0x00000b28:    8880        ..      LDRH     r0,[r0,#4]
        0x00000b2a:    497a        zI      LDR      r1,[pc,#488] ; [0xd14] = 0x5510
        0x00000b2c:    4288        .B      CMP      r0,r1
        0x00000b2e:    d006        ..      BEQ      0xb3e ; LCD_Scan_Dir + 270
        0x00000b30:    4873        sH      LDR      r0,[pc,#460] ; [0xd00] = 0x2000000c
        0x00000b32:    8880        ..      LDRH     r0,[r0,#4]
        0x00000b34:    4974        tI      LDR      r1,[pc,#464] ; [0xd08] = 0x1963
        0x00000b36:    4288        .B      CMP      r0,r1
        0x00000b38:    d001        ..      BEQ      0xb3e ; LCD_Scan_Dir + 270
        0x00000b3a:    2008        .       MOVS     r0,#8
        0x00000b3c:    4304        .C      ORRS     r4,r4,r0
        0x00000b3e:    4870        pH      LDR      r0,[pc,#448] ; [0xd00] = 0x2000000c
        0x00000b40:    8880        ..      LDRH     r0,[r0,#4]
        0x00000b42:    4970        pI      LDR      r1,[pc,#448] ; [0xd04] = 0x6804
        0x00000b44:    4288        .B      CMP      r0,r1
        0x00000b46:    d101        ..      BNE      0xb4c ; LCD_Scan_Dir + 284
        0x00000b48:    2002        .       MOVS     r0,#2
        0x00000b4a:    4304        .C      ORRS     r4,r4,r0
        0x00000b4c:    4621        !F      MOV      r1,r4
        0x00000b4e:    4638        8F      MOV      r0,r7
        0x00000b50:    f000f9e2    ....    BL       LCD_WriteReg ; 0xf18
        0x00000b54:    486a        jH      LDR      r0,[pc,#424] ; [0xd00] = 0x2000000c
        0x00000b56:    8880        ..      LDRH     r0,[r0,#4]
        0x00000b58:    496b        kI      LDR      r1,[pc,#428] ; [0xd08] = 0x1963
        0x00000b5a:    4288        .B      CMP      r0,r1
        0x00000b5c:    d01e        ..      BEQ      0xb9c ; LCD_Scan_Dir + 364
        0x00000b5e:    2020                MOVS     r0,#0x20
        0x00000b60:    4020         @      ANDS     r0,r0,r4
        0x00000b62:    2800        .(      CMP      r0,#0
        0x00000b64:    d00d        ..      BEQ      0xb82 ; LCD_Scan_Dir + 338
        0x00000b66:    4866        fH      LDR      r0,[pc,#408] ; [0xd00] = 0x2000000c
        0x00000b68:    8800        ..      LDRH     r0,[r0,#0]
        0x00000b6a:    4965        eI      LDR      r1,[pc,#404] ; [0xd00] = 0x2000000c
        0x00000b6c:    8849        I.      LDRH     r1,[r1,#2]
        0x00000b6e:    4288        .B      CMP      r0,r1
        0x00000b70:    da14        ..      BGE      0xb9c ; LCD_Scan_Dir + 364
        0x00000b72:    4863        cH      LDR      r0,[pc,#396] ; [0xd00] = 0x2000000c
        0x00000b74:    8806        ..      LDRH     r6,[r0,#0]
        0x00000b76:    8840        @.      LDRH     r0,[r0,#2]
        0x00000b78:    4961        aI      LDR      r1,[pc,#388] ; [0xd00] = 0x2000000c
        0x00000b7a:    8008        ..      STRH     r0,[r1,#0]
        0x00000b7c:    4608        .F      MOV      r0,r1
        0x00000b7e:    8046        F.      STRH     r6,[r0,#2]
        0x00000b80:    e00c        ..      B        0xb9c ; LCD_Scan_Dir + 364
        0x00000b82:    485f        _H      LDR      r0,[pc,#380] ; [0xd00] = 0x2000000c
        0x00000b84:    8800        ..      LDRH     r0,[r0,#0]
        0x00000b86:    495e        ^I      LDR      r1,[pc,#376] ; [0xd00] = 0x2000000c
        0x00000b88:    8849        I.      LDRH     r1,[r1,#2]
        0x00000b8a:    4288        .B      CMP      r0,r1
        0x00000b8c:    dd06        ..      BLE      0xb9c ; LCD_Scan_Dir + 364
        0x00000b8e:    485c        \H      LDR      r0,[pc,#368] ; [0xd00] = 0x2000000c
        0x00000b90:    8806        ..      LDRH     r6,[r0,#0]
        0x00000b92:    8840        @.      LDRH     r0,[r0,#2]
        0x00000b94:    495a        ZI      LDR      r1,[pc,#360] ; [0xd00] = 0x2000000c
        0x00000b96:    8008        ..      STRH     r0,[r1,#0]
        0x00000b98:    4608        .F      MOV      r0,r1
        0x00000b9a:    8046        F.      STRH     r6,[r0,#2]
        0x00000b9c:    4858        XH      LDR      r0,[pc,#352] ; [0xd00] = 0x2000000c
        0x00000b9e:    8880        ..      LDRH     r0,[r0,#4]
        0x00000ba0:    495c        \I      LDR      r1,[pc,#368] ; [0xd14] = 0x5510
        0x00000ba2:    4288        .B      CMP      r0,r1
        0x00000ba4:    d154        T.      BNE      0xc50 ; LCD_Scan_Dir + 544
        0x00000ba6:    4956        VI      LDR      r1,[pc,#344] ; [0xd00] = 0x2000000c
        0x00000ba8:    8948        H.      LDRH     r0,[r1,#0xa]
        0x00000baa:    f000f99b    ....    BL       LCD_WR_REG ; 0xee4
        0x00000bae:    2000        .       MOVS     r0,#0
        0x00000bb0:    f000f985    ....    BL       LCD_WR_DATA ; 0xebe
        0x00000bb4:    4952        RI      LDR      r1,[pc,#328] ; [0xd00] = 0x2000000c
        0x00000bb6:    8949        I.      LDRH     r1,[r1,#0xa]
        0x00000bb8:    1c49        I.      ADDS     r1,r1,#1
        0x00000bba:    b288        ..      UXTH     r0,r1
        0x00000bbc:    f000f992    ....    BL       LCD_WR_REG ; 0xee4
        0x00000bc0:    2000        .       MOVS     r0,#0
        0x00000bc2:    f000f97c    ..|.    BL       LCD_WR_DATA ; 0xebe
        0x00000bc6:    e000        ..      B        0xbca ; LCD_Scan_Dir + 410
        0x00000bc8:    e071        q.      B        0xcae ; LCD_Scan_Dir + 638
        0x00000bca:    494d        MI      LDR      r1,[pc,#308] ; [0xd00] = 0x2000000c
        0x00000bcc:    8949        I.      LDRH     r1,[r1,#0xa]
        0x00000bce:    1c89        ..      ADDS     r1,r1,#2
        0x00000bd0:    b288        ..      UXTH     r0,r1
        0x00000bd2:    f000f987    ....    BL       LCD_WR_REG ; 0xee4
        0x00000bd6:    494a        JI      LDR      r1,[pc,#296] ; [0xd00] = 0x2000000c
        0x00000bd8:    8809        ..      LDRH     r1,[r1,#0]
        0x00000bda:    1e49        I.      SUBS     r1,r1,#1
        0x00000bdc:    0209        ..      LSLS     r1,r1,#8
        0x00000bde:    0c08        ..      LSRS     r0,r1,#16
        0x00000be0:    f000f96d    ..m.    BL       LCD_WR_DATA ; 0xebe
        0x00000be4:    4946        FI      LDR      r1,[pc,#280] ; [0xd00] = 0x2000000c
        0x00000be6:    8949        I.      LDRH     r1,[r1,#0xa]
        0x00000be8:    1cc9        ..      ADDS     r1,r1,#3
        0x00000bea:    b288        ..      UXTH     r0,r1
        0x00000bec:    f000f97a    ..z.    BL       LCD_WR_REG ; 0xee4
        0x00000bf0:    4943        CI      LDR      r1,[pc,#268] ; [0xd00] = 0x2000000c
        0x00000bf2:    7809        .x      LDRB     r1,[r1,#0]
        0x00000bf4:    1e49        I.      SUBS     r1,r1,#1
        0x00000bf6:    b2c8        ..      UXTB     r0,r1
        0x00000bf8:    f000f961    ..a.    BL       LCD_WR_DATA ; 0xebe
        0x00000bfc:    4940        @I      LDR      r1,[pc,#256] ; [0xd00] = 0x2000000c
        0x00000bfe:    8988        ..      LDRH     r0,[r1,#0xc]
        0x00000c00:    f000f970    ..p.    BL       LCD_WR_REG ; 0xee4
        0x00000c04:    2000        .       MOVS     r0,#0
        0x00000c06:    f000f95a    ..Z.    BL       LCD_WR_DATA ; 0xebe
        0x00000c0a:    493d        =I      LDR      r1,[pc,#244] ; [0xd00] = 0x2000000c
        0x00000c0c:    8989        ..      LDRH     r1,[r1,#0xc]
        0x00000c0e:    1c49        I.      ADDS     r1,r1,#1
        0x00000c10:    b288        ..      UXTH     r0,r1
        0x00000c12:    f000f967    ..g.    BL       LCD_WR_REG ; 0xee4
        0x00000c16:    2000        .       MOVS     r0,#0
        0x00000c18:    f000f951    ..Q.    BL       LCD_WR_DATA ; 0xebe
        0x00000c1c:    4938        8I      LDR      r1,[pc,#224] ; [0xd00] = 0x2000000c
        0x00000c1e:    8989        ..      LDRH     r1,[r1,#0xc]
        0x00000c20:    1c89        ..      ADDS     r1,r1,#2
        0x00000c22:    b288        ..      UXTH     r0,r1
        0x00000c24:    f000f95e    ..^.    BL       LCD_WR_REG ; 0xee4
        0x00000c28:    4935        5I      LDR      r1,[pc,#212] ; [0xd00] = 0x2000000c
        0x00000c2a:    8849        I.      LDRH     r1,[r1,#2]
        0x00000c2c:    1e49        I.      SUBS     r1,r1,#1
        0x00000c2e:    0209        ..      LSLS     r1,r1,#8
        0x00000c30:    0c08        ..      LSRS     r0,r1,#16
        0x00000c32:    f000f944    ..D.    BL       LCD_WR_DATA ; 0xebe
        0x00000c36:    4932        2I      LDR      r1,[pc,#200] ; [0xd00] = 0x2000000c
        0x00000c38:    8989        ..      LDRH     r1,[r1,#0xc]
        0x00000c3a:    1cc9        ..      ADDS     r1,r1,#3
        0x00000c3c:    b288        ..      UXTH     r0,r1
        0x00000c3e:    f000f951    ..Q.    BL       LCD_WR_REG ; 0xee4
        0x00000c42:    492f        /I      LDR      r1,[pc,#188] ; [0xd00] = 0x2000000c
        0x00000c44:    7889        .x      LDRB     r1,[r1,#2]
        0x00000c46:    1e49        I.      SUBS     r1,r1,#1
        0x00000c48:    b2c8        ..      UXTB     r0,r1
        0x00000c4a:    f000f938    ..8.    BL       LCD_WR_DATA ; 0xebe
        0x00000c4e:    e056        V.      B        0xcfe ; LCD_Scan_Dir + 718
        0x00000c50:    492b        +I      LDR      r1,[pc,#172] ; [0xd00] = 0x2000000c
        0x00000c52:    8948        H.      LDRH     r0,[r1,#0xa]
        0x00000c54:    f000f946    ..F.    BL       LCD_WR_REG ; 0xee4
        0x00000c58:    2000        .       MOVS     r0,#0
        0x00000c5a:    f000f930    ..0.    BL       LCD_WR_DATA ; 0xebe
        0x00000c5e:    2000        .       MOVS     r0,#0
        0x00000c60:    f000f92d    ..-.    BL       LCD_WR_DATA ; 0xebe
        0x00000c64:    4926        &I      LDR      r1,[pc,#152] ; [0xd00] = 0x2000000c
        0x00000c66:    8809        ..      LDRH     r1,[r1,#0]
        0x00000c68:    1e49        I.      SUBS     r1,r1,#1
        0x00000c6a:    0209        ..      LSLS     r1,r1,#8
        0x00000c6c:    0c08        ..      LSRS     r0,r1,#16
        0x00000c6e:    f000f926    ..&.    BL       LCD_WR_DATA ; 0xebe
        0x00000c72:    4923        #I      LDR      r1,[pc,#140] ; [0xd00] = 0x2000000c
        0x00000c74:    7809        .x      LDRB     r1,[r1,#0]
        0x00000c76:    1e49        I.      SUBS     r1,r1,#1
        0x00000c78:    b2c8        ..      UXTB     r0,r1
        0x00000c7a:    f000f920    .. .    BL       LCD_WR_DATA ; 0xebe
        0x00000c7e:    4920         I      LDR      r1,[pc,#128] ; [0xd00] = 0x2000000c
        0x00000c80:    8988        ..      LDRH     r0,[r1,#0xc]
        0x00000c82:    f000f92f    ../.    BL       LCD_WR_REG ; 0xee4
        0x00000c86:    2000        .       MOVS     r0,#0
        0x00000c88:    f000f919    ....    BL       LCD_WR_DATA ; 0xebe
        0x00000c8c:    2000        .       MOVS     r0,#0
        0x00000c8e:    f000f916    ....    BL       LCD_WR_DATA ; 0xebe
        0x00000c92:    491b        .I      LDR      r1,[pc,#108] ; [0xd00] = 0x2000000c
        0x00000c94:    8849        I.      LDRH     r1,[r1,#2]
        0x00000c96:    1e49        I.      SUBS     r1,r1,#1
        0x00000c98:    0209        ..      LSLS     r1,r1,#8
        0x00000c9a:    0c08        ..      LSRS     r0,r1,#16
        0x00000c9c:    f000f90f    ....    BL       LCD_WR_DATA ; 0xebe
        0x00000ca0:    4917        .I      LDR      r1,[pc,#92] ; [0xd00] = 0x2000000c
        0x00000ca2:    7889        .x      LDRB     r1,[r1,#2]
        0x00000ca4:    1e49        I.      SUBS     r1,r1,#1
        0x00000ca6:    b2c8        ..      UXTB     r0,r1
        0x00000ca8:    f000f909    ....    BL       LCD_WR_DATA ; 0xebe
        0x00000cac:    e027        '.      B        0xcfe ; LCD_Scan_Dir + 718
        0x00000cae:    002b        +.      MOVS     r3,r5
        0x00000cb0:    f000f9ee    ....    BL       __ARM_common_switch8 ; 0x1090
    $d
        0x00000cb4:    0b080508    ....    DCD    185074952
        0x00000cb8:    1613100e    ....    DCD    370348046
        0x00000cbc:    1c19        ..      DCW    7193
    $t
        0x00000cbe:    2030        0       MOVS     r0,#0x30
        0x00000cc0:    4304        .C      ORRS     r4,r4,r0
        0x00000cc2:    e013        ..      B        0xcec ; LCD_Scan_Dir + 700
        0x00000cc4:    2010        .       MOVS     r0,#0x10
        0x00000cc6:    4304        .C      ORRS     r4,r4,r0
        0x00000cc8:    e010        ..      B        0xcec ; LCD_Scan_Dir + 700
        0x00000cca:    2020                MOVS     r0,#0x20
        0x00000ccc:    4304        .C      ORRS     r4,r4,r0
        0x00000cce:    e00d        ..      B        0xcec ; LCD_Scan_Dir + 700
        0x00000cd0:    bf00        ..      NOP      
        0x00000cd2:    e00b        ..      B        0xcec ; LCD_Scan_Dir + 700
        0x00000cd4:    2038        8       MOVS     r0,#0x38
        0x00000cd6:    4304        .C      ORRS     r4,r4,r0
        0x00000cd8:    e008        ..      B        0xcec ; LCD_Scan_Dir + 700
        0x00000cda:    2028        (       MOVS     r0,#0x28
        0x00000cdc:    4304        .C      ORRS     r4,r4,r0
        0x00000cde:    e005        ..      B        0xcec ; LCD_Scan_Dir + 700
        0x00000ce0:    2018        .       MOVS     r0,#0x18
        0x00000ce2:    4304        .C      ORRS     r4,r4,r0
        0x00000ce4:    e002        ..      B        0xcec ; LCD_Scan_Dir + 700
        0x00000ce6:    2008        .       MOVS     r0,#8
        0x00000ce8:    4304        .C      ORRS     r4,r4,r0
        0x00000cea:    bf00        ..      NOP      
        0x00000cec:    bf00        ..      NOP      
        0x00000cee:    2703        .'      MOVS     r7,#3
        0x00000cf0:    2001        .       MOVS     r0,#1
        0x00000cf2:    0300        ..      LSLS     r0,r0,#12
        0x00000cf4:    4304        .C      ORRS     r4,r4,r0
        0x00000cf6:    4621        !F      MOV      r1,r4
        0x00000cf8:    4638        8F      MOV      r0,r7
        0x00000cfa:    f000f90d    ....    BL       LCD_WriteReg ; 0xf18
        0x00000cfe:    bdf0        ..      POP      {r4-r7,pc}
    $d
        0x00000d00:    2000000c    ...     DCD    536870924
        0x00000d04:    00006804    .h..    DCD    26628
        0x00000d08:    00001963    c...    DCD    6499
        0x00000d0c:    00009341    A...    DCD    37697
        0x00000d10:    00005310    .S..    DCD    21264
        0x00000d14:    00005510    .U..    DCD    21776
    $t
    i.LCD_SetCursor
    LCD_SetCursor
        0x00000d18:    b510        ..      PUSH     {r4,lr}
        0x00000d1a:    4603        .F      MOV      r3,r0
        0x00000d1c:    460c        .F      MOV      r4,r1
        0x00000d1e:    490a        .I      LDR      r1,[pc,#40] ; [0xd48] = 0x2000000c
        0x00000d20:    8948        H.      LDRH     r0,[r1,#0xa]
        0x00000d22:    f000f8df    ....    BL       LCD_WR_REG ; 0xee4
        0x00000d26:    1218        ..      ASRS     r0,r3,#8
        0x00000d28:    f000f8c9    ....    BL       LCD_WR_DATA ; 0xebe
        0x00000d2c:    b2d8        ..      UXTB     r0,r3
        0x00000d2e:    f000f8c6    ....    BL       LCD_WR_DATA ; 0xebe
        0x00000d32:    4905        .I      LDR      r1,[pc,#20] ; [0xd48] = 0x2000000c
        0x00000d34:    8988        ..      LDRH     r0,[r1,#0xc]
        0x00000d36:    f000f8d5    ....    BL       LCD_WR_REG ; 0xee4
        0x00000d3a:    1220         .      ASRS     r0,r4,#8
        0x00000d3c:    f000f8bf    ....    BL       LCD_WR_DATA ; 0xebe
        0x00000d40:    b2e0        ..      UXTB     r0,r4
        0x00000d42:    f000f8bc    ....    BL       LCD_WR_DATA ; 0xebe
        0x00000d46:    bd10        ..      POP      {r4,pc}
    $d
        0x00000d48:    2000000c    ...     DCD    536870924
    $t
    i.LCD_ShowChar
    LCD_ShowChar
        0x00000d4c:    b5ff        ..      PUSH     {r0-r7,lr}
        0x00000d4e:    b085        ..      SUB      sp,sp,#0x14
        0x00000d50:    460e        .F      MOV      r6,r1
        0x00000d52:    4617        .F      MOV      r7,r2
        0x00000d54:    2410        .$      MOVS     r4,#0x10
        0x00000d56:    9602        ..      STR      r6,[sp,#8]
        0x00000d58:    4620         F      MOV      r0,r4
        0x00000d5a:    17e2        ..      ASRS     r2,r4,#31
        0x00000d5c:    0f52        R.      LSRS     r2,r2,#29
        0x00000d5e:    1812        ..      ADDS     r2,r2,r0
        0x00000d60:    10d2        ..      ASRS     r2,r2,#3
        0x00000d62:    17e3        ..      ASRS     r3,r4,#31
        0x00000d64:    0f5b        [.      LSRS     r3,r3,#29
        0x00000d66:    181b        ..      ADDS     r3,r3,r0
        0x00000d68:    10db        ..      ASRS     r3,r3,#3
        0x00000d6a:    00db        ..      LSLS     r3,r3,#3
        0x00000d6c:    9400        ..      STR      r4,[sp,#0]
        0x00000d6e:    1ae3        ..      SUBS     r3,r4,r3
        0x00000d70:    d001        ..      BEQ      0xd76 ; LCD_ShowChar + 42
        0x00000d72:    2301        .#      MOVS     r3,#1
        0x00000d74:    e000        ..      B        0xd78 ; LCD_ShowChar + 44
        0x00000d76:    2300        .#      MOVS     r3,#0
        0x00000d78:    18d2        ..      ADDS     r2,r2,r3
        0x00000d7a:    4621        !F      MOV      r1,r4
        0x00000d7c:    0fe3        ..      LSRS     r3,r4,#31
        0x00000d7e:    185b        [.      ADDS     r3,r3,r1
        0x00000d80:    105b        [.      ASRS     r3,r3,#1
        0x00000d82:    435a        ZC      MULS     r2,r3,r2
        0x00000d84:    b2d2        ..      UXTB     r2,r2
        0x00000d86:    9201        ..      STR      r2,[sp,#4]
        0x00000d88:    4638        8F      MOV      r0,r7
        0x00000d8a:    3820         8      SUBS     r0,r0,#0x20
        0x00000d8c:    b2c7        ..      UXTB     r7,r0
        0x00000d8e:    2500        .%      MOVS     r5,#0
        0x00000d90:    e056        V.      B        0xe40 ; LCD_ShowChar + 244
        0x00000d92:    2c0c        .,      CMP      r4,#0xc
        0x00000d94:    d105        ..      BNE      0xda2 ; LCD_ShowChar + 86
        0x00000d96:    0138        8.      LSLS     r0,r7,#4
        0x00000d98:    492c        ,I      LDR      r1,[pc,#176] ; [0xe4c] = 0x11ca
        0x00000d9a:    1840        @.      ADDS     r0,r0,r1
        0x00000d9c:    5d40        @]      LDRB     r0,[r0,r5]
        0x00000d9e:    9004        ..      STR      r0,[sp,#0x10]
        0x00000da0:    e011        ..      B        0xdc6 ; LCD_ShowChar + 122
        0x00000da2:    2c10        .,      CMP      r4,#0x10
        0x00000da4:    d105        ..      BNE      0xdb2 ; LCD_ShowChar + 102
        0x00000da6:    0138        8.      LSLS     r0,r7,#4
        0x00000da8:    4928        (I      LDR      r1,[pc,#160] ; [0xe4c] = 0x11ca
        0x00000daa:    1840        @.      ADDS     r0,r0,r1
        0x00000dac:    5d40        @]      LDRB     r0,[r0,r5]
        0x00000dae:    9004        ..      STR      r0,[sp,#0x10]
        0x00000db0:    e009        ..      B        0xdc6 ; LCD_ShowChar + 122
        0x00000db2:    2c18        .,      CMP      r4,#0x18
        0x00000db4:    d105        ..      BNE      0xdc2 ; LCD_ShowChar + 118
        0x00000db6:    0138        8.      LSLS     r0,r7,#4
        0x00000db8:    4924        $I      LDR      r1,[pc,#144] ; [0xe4c] = 0x11ca
        0x00000dba:    1840        @.      ADDS     r0,r0,r1
        0x00000dbc:    5d40        @]      LDRB     r0,[r0,r5]
        0x00000dbe:    9004        ..      STR      r0,[sp,#0x10]
        0x00000dc0:    e001        ..      B        0xdc6 ; LCD_ShowChar + 122
        0x00000dc2:    b009        ..      ADD      sp,sp,#0x24
        0x00000dc4:    bdf0        ..      POP      {r4-r7,pc}
        0x00000dc6:    2000        .       MOVS     r0,#0
        0x00000dc8:    9003        ..      STR      r0,[sp,#0xc]
        0x00000dca:    e033        3.      B        0xe34 ; LCD_ShowChar + 232
        0x00000dcc:    2180        .!      MOVS     r1,#0x80
        0x00000dce:    9804        ..      LDR      r0,[sp,#0x10]
        0x00000dd0:    4008        .@      ANDS     r0,r0,r1
        0x00000dd2:    2800        .(      CMP      r0,#0
        0x00000dd4:    d006        ..      BEQ      0xde4 ; LCD_ShowChar + 152
        0x00000dd6:    481e        .H      LDR      r0,[pc,#120] ; [0xe50] = 0x20000000
        0x00000dd8:    8802        ..      LDRH     r2,[r0,#0]
        0x00000dda:    4631        1F      MOV      r1,r6
        0x00000ddc:    9805        ..      LDR      r0,[sp,#0x14]
        0x00000dde:    f7fffcad    ....    BL       LCD_Fast_DrawPoint ; 0x73c
        0x00000de2:    e008        ..      B        0xdf6 ; LCD_ShowChar + 170
        0x00000de4:    9808        ..      LDR      r0,[sp,#0x20]
        0x00000de6:    2800        .(      CMP      r0,#0
        0x00000de8:    d105        ..      BNE      0xdf6 ; LCD_ShowChar + 170
        0x00000dea:    481a        .H      LDR      r0,[pc,#104] ; [0xe54] = 0x20000002
        0x00000dec:    8802        ..      LDRH     r2,[r0,#0]
        0x00000dee:    4631        1F      MOV      r1,r6
        0x00000df0:    9805        ..      LDR      r0,[sp,#0x14]
        0x00000df2:    f7fffca3    ....    BL       LCD_Fast_DrawPoint ; 0x73c
        0x00000df6:    9804        ..      LDR      r0,[sp,#0x10]
        0x00000df8:    0640        @.      LSLS     r0,r0,#25
        0x00000dfa:    0e00        ..      LSRS     r0,r0,#24
        0x00000dfc:    9004        ..      STR      r0,[sp,#0x10]
        0x00000dfe:    1c70        p.      ADDS     r0,r6,#1
        0x00000e00:    b286        ..      UXTH     r6,r0
        0x00000e02:    4815        .H      LDR      r0,[pc,#84] ; [0xe58] = 0x2000000c
        0x00000e04:    8840        @.      LDRH     r0,[r0,#2]
        0x00000e06:    42b0        .B      CMP      r0,r6
        0x00000e08:    dc00        ..      BGT      0xe0c ; LCD_ShowChar + 192
        0x00000e0a:    e7da        ..      B        0xdc2 ; LCD_ShowChar + 118
        0x00000e0c:    9802        ..      LDR      r0,[sp,#8]
        0x00000e0e:    1a30        0.      SUBS     r0,r6,r0
        0x00000e10:    42a0        .B      CMP      r0,r4
        0x00000e12:    d10b        ..      BNE      0xe2c ; LCD_ShowChar + 224
        0x00000e14:    9e02        ..      LDR      r6,[sp,#8]
        0x00000e16:    9805        ..      LDR      r0,[sp,#0x14]
        0x00000e18:    1c40        @.      ADDS     r0,r0,#1
        0x00000e1a:    b280        ..      UXTH     r0,r0
        0x00000e1c:    9005        ..      STR      r0,[sp,#0x14]
        0x00000e1e:    480e        .H      LDR      r0,[pc,#56] ; [0xe58] = 0x2000000c
        0x00000e20:    8801        ..      LDRH     r1,[r0,#0]
        0x00000e22:    9805        ..      LDR      r0,[sp,#0x14]
        0x00000e24:    4281        .B      CMP      r1,r0
        0x00000e26:    dc00        ..      BGT      0xe2a ; LCD_ShowChar + 222
        0x00000e28:    e7cb        ..      B        0xdc2 ; LCD_ShowChar + 118
        0x00000e2a:    e006        ..      B        0xe3a ; LCD_ShowChar + 238
        0x00000e2c:    9803        ..      LDR      r0,[sp,#0xc]
        0x00000e2e:    1c40        @.      ADDS     r0,r0,#1
        0x00000e30:    b2c0        ..      UXTB     r0,r0
        0x00000e32:    9003        ..      STR      r0,[sp,#0xc]
        0x00000e34:    9803        ..      LDR      r0,[sp,#0xc]
        0x00000e36:    2808        .(      CMP      r0,#8
        0x00000e38:    dbc8        ..      BLT      0xdcc ; LCD_ShowChar + 128
        0x00000e3a:    bf00        ..      NOP      
        0x00000e3c:    1c68        h.      ADDS     r0,r5,#1
        0x00000e3e:    b2c5        ..      UXTB     r5,r0
        0x00000e40:    9801        ..      LDR      r0,[sp,#4]
        0x00000e42:    4285        .B      CMP      r5,r0
        0x00000e44:    dba5        ..      BLT      0xd92 ; LCD_ShowChar + 70
        0x00000e46:    bf00        ..      NOP      
        0x00000e48:    e7bb        ..      B        0xdc2 ; LCD_ShowChar + 118
    $d
        0x00000e4a:    0000        ..      DCW    0
        0x00000e4c:    000011ca    ....    DCD    4554
        0x00000e50:    20000000    ...     DCD    536870912
        0x00000e54:    20000002    ...     DCD    536870914
        0x00000e58:    2000000c    ...     DCD    536870924
    $t
    i.LCD_ShowString
    LCD_ShowString
        0x00000e5c:    b5ff        ..      PUSH     {r0-r7,lr}
        0x00000e5e:    b081        ..      SUB      sp,sp,#4
        0x00000e60:    4604        .F      MOV      r4,r0
        0x00000e62:    460d        .F      MOV      r5,r1
        0x00000e64:    9e0a        ..      LDR      r6,[sp,#0x28]
        0x00000e66:    2710        .'      MOVS     r7,#0x10
        0x00000e68:    b2e0        ..      UXTB     r0,r4
        0x00000e6a:    9000        ..      STR      r0,[sp,#0]
        0x00000e6c:    9803        ..      LDR      r0,[sp,#0xc]
        0x00000e6e:    1900        ..      ADDS     r0,r0,r4
        0x00000e70:    b280        ..      UXTH     r0,r0
        0x00000e72:    9003        ..      STR      r0,[sp,#0xc]
        0x00000e74:    9804        ..      LDR      r0,[sp,#0x10]
        0x00000e76:    1940        @.      ADDS     r0,r0,r5
        0x00000e78:    b280        ..      UXTH     r0,r0
        0x00000e7a:    9004        ..      STR      r0,[sp,#0x10]
        0x00000e7c:    e016        ..      B        0xeac ; LCD_ShowString + 80
        0x00000e7e:    9803        ..      LDR      r0,[sp,#0xc]
        0x00000e80:    4284        .B      CMP      r4,r0
        0x00000e82:    db02        ..      BLT      0xe8a ; LCD_ShowString + 46
        0x00000e84:    9c00        ..      LDR      r4,[sp,#0]
        0x00000e86:    19e8        ..      ADDS     r0,r5,r7
        0x00000e88:    b285        ..      UXTH     r5,r0
        0x00000e8a:    9804        ..      LDR      r0,[sp,#0x10]
        0x00000e8c:    4285        .B      CMP      r5,r0
        0x00000e8e:    db00        ..      BLT      0xe92 ; LCD_ShowString + 54
        0x00000e90:    e012        ..      B        0xeb8 ; LCD_ShowString + 92
        0x00000e92:    7832        2x      LDRB     r2,[r6,#0]
        0x00000e94:    2300        .#      MOVS     r3,#0
        0x00000e96:    4629        )F      MOV      r1,r5
        0x00000e98:    4620         F      MOV      r0,r4
        0x00000e9a:    f7ffff57    ..W.    BL       LCD_ShowChar ; 0xd4c
        0x00000e9e:    4638        8F      MOV      r0,r7
        0x00000ea0:    0ff9        ..      LSRS     r1,r7,#31
        0x00000ea2:    1809        ..      ADDS     r1,r1,r0
        0x00000ea4:    1049        I.      ASRS     r1,r1,#1
        0x00000ea6:    1909        ..      ADDS     r1,r1,r4
        0x00000ea8:    b28c        ..      UXTH     r4,r1
        0x00000eaa:    1c76        v.      ADDS     r6,r6,#1
        0x00000eac:    7830        0x      LDRB     r0,[r6,#0]
        0x00000eae:    287e        ~(      CMP      r0,#0x7e
        0x00000eb0:    dc02        ..      BGT      0xeb8 ; LCD_ShowString + 92
        0x00000eb2:    7830        0x      LDRB     r0,[r6,#0]
        0x00000eb4:    2820         (      CMP      r0,#0x20
        0x00000eb6:    dae2        ..      BGE      0xe7e ; LCD_ShowString + 34
        0x00000eb8:    bf00        ..      NOP      
        0x00000eba:    b005        ..      ADD      sp,sp,#0x14
        0x00000ebc:    bdf0        ..      POP      {r4-r7,pc}
    i.LCD_WR_DATA
    LCD_WR_DATA
        0x00000ebe:    b500        ..      PUSH     {lr}
        0x00000ec0:    4602        .F      MOV      r2,r0
        0x00000ec2:    2001        .       MOVS     r0,#1
        0x00000ec4:    2105        .!      MOVS     r1,#5
        0x00000ec6:    0709        ..      LSLS     r1,r1,#28
        0x00000ec8:    6048        H`      STR      r0,[r1,#4]
        0x00000eca:    2000        .       MOVS     r0,#0
        0x00000ecc:    6008        .`      STR      r0,[r1,#0]
        0x00000ece:    4610        .F      MOV      r0,r2
        0x00000ed0:    f000f848    ..H.    BL       MakeData ; 0xf64
        0x00000ed4:    2000        .       MOVS     r0,#0
        0x00000ed6:    2105        .!      MOVS     r1,#5
        0x00000ed8:    0709        ..      LSLS     r1,r1,#28
        0x00000eda:    6088        .`      STR      r0,[r1,#8]
        0x00000edc:    2001        .       MOVS     r0,#1
        0x00000ede:    6088        .`      STR      r0,[r1,#8]
        0x00000ee0:    6008        .`      STR      r0,[r1,#0]
        0x00000ee2:    bd00        ..      POP      {pc}
    i.LCD_WR_REG
    LCD_WR_REG
        0x00000ee4:    b500        ..      PUSH     {lr}
        0x00000ee6:    4602        .F      MOV      r2,r0
        0x00000ee8:    2000        .       MOVS     r0,#0
        0x00000eea:    2105        .!      MOVS     r1,#5
        0x00000eec:    0709        ..      LSLS     r1,r1,#28
        0x00000eee:    6048        H`      STR      r0,[r1,#4]
        0x00000ef0:    6008        .`      STR      r0,[r1,#0]
        0x00000ef2:    4610        .F      MOV      r0,r2
        0x00000ef4:    f000f836    ..6.    BL       MakeData ; 0xf64
        0x00000ef8:    2000        .       MOVS     r0,#0
        0x00000efa:    2105        .!      MOVS     r1,#5
        0x00000efc:    0709        ..      LSLS     r1,r1,#28
        0x00000efe:    6088        .`      STR      r0,[r1,#8]
        0x00000f00:    2001        .       MOVS     r0,#1
        0x00000f02:    6088        .`      STR      r0,[r1,#8]
        0x00000f04:    6008        .`      STR      r0,[r1,#0]
        0x00000f06:    bd00        ..      POP      {pc}
    i.LCD_WriteRAM_Prepare
    LCD_WriteRAM_Prepare
        0x00000f08:    b500        ..      PUSH     {lr}
        0x00000f0a:    4902        .I      LDR      r1,[pc,#8] ; [0xf14] = 0x2000000c
        0x00000f0c:    8908        ..      LDRH     r0,[r1,#8]
        0x00000f0e:    f7ffffe9    ....    BL       LCD_WR_REG ; 0xee4
        0x00000f12:    bd00        ..      POP      {pc}
    $d
        0x00000f14:    2000000c    ...     DCD    536870924
    $t
    i.LCD_WriteReg
    LCD_WriteReg
        0x00000f18:    b510        ..      PUSH     {r4,lr}
        0x00000f1a:    4604        .F      MOV      r4,r0
        0x00000f1c:    460b        .F      MOV      r3,r1
        0x00000f1e:    4620         F      MOV      r0,r4
        0x00000f20:    f7ffffe0    ....    BL       LCD_WR_REG ; 0xee4
        0x00000f24:    4618        .F      MOV      r0,r3
        0x00000f26:    f7ffffca    ....    BL       LCD_WR_DATA ; 0xebe
        0x00000f2a:    bd10        ..      POP      {r4,pc}
    i.LED_toggle
    LED_toggle
        0x00000f2c:    b530        0.      PUSH     {r4,r5,lr}
        0x00000f2e:    4602        .F      MOV      r2,r0
        0x00000f30:    2000        .       MOVS     r0,#0
        0x00000f32:    2100        .!      MOVS     r1,#0
        0x00000f34:    2300        .#      MOVS     r3,#0
        0x00000f36:    4c0a        .L      LDR      r4,[pc,#40] ; [0xf60] = 0x40001000
        0x00000f38:    6821        !h      LDR      r1,[r4,#0]
        0x00000f3a:    2401        .$      MOVS     r4,#1
        0x00000f3c:    4094        .@      LSLS     r4,r4,r2
        0x00000f3e:    4620         F      MOV      r0,r4
        0x00000f40:    4604        .F      MOV      r4,r0
        0x00000f42:    400c        .@      ANDS     r4,r4,r1
        0x00000f44:    4623        #F      MOV      r3,r4
        0x00000f46:    2b00        .+      CMP      r3,#0
        0x00000f48:    d104        ..      BNE      0xf54 ; LED_toggle + 40
        0x00000f4a:    460c        .F      MOV      r4,r1
        0x00000f4c:    4304        .C      ORRS     r4,r4,r0
        0x00000f4e:    4d04        .M      LDR      r5,[pc,#16] ; [0xf60] = 0x40001000
        0x00000f50:    602c        ,`      STR      r4,[r5,#0]
        0x00000f52:    e003        ..      B        0xf5c ; LED_toggle + 48
        0x00000f54:    460c        .F      MOV      r4,r1
        0x00000f56:    4384        .C      BICS     r4,r4,r0
        0x00000f58:    4d01        .M      LDR      r5,[pc,#4] ; [0xf60] = 0x40001000
        0x00000f5a:    602c        ,`      STR      r4,[r5,#0]
        0x00000f5c:    bd30        0.      POP      {r4,r5,pc}
    $d
        0x00000f5e:    0000        ..      DCW    0
        0x00000f60:    40001000    ...@    DCD    1073745920
    $t
    i.MakeData
    MakeData
        0x00000f64:    2105        .!      MOVS     r1,#5
        0x00000f66:    0709        ..      LSLS     r1,r1,#28
        0x00000f68:    6188        .a      STR      r0,[r1,#0x18]
        0x00000f6a:    4770        pG      BX       lr
    i.MemManageHandler
    MemManageHandler
        0x00000f6c:    4770        pG      BX       lr
    i.NMIHandler
    NMIHandler
        0x00000f6e:    4770        pG      BX       lr
    i.NVIC_EnableIRQ
    NVIC_EnableIRQ
        0x00000f70:    06c2        ..      LSLS     r2,r0,#27
        0x00000f72:    0ed2        ..      LSRS     r2,r2,#27
        0x00000f74:    2101        .!      MOVS     r1,#1
        0x00000f76:    4091        .@      LSLS     r1,r1,r2
        0x00000f78:    4a01        .J      LDR      r2,[pc,#4] ; [0xf80] = 0xe000e100
        0x00000f7a:    6011        .`      STR      r1,[r2,#0]
        0x00000f7c:    4770        pG      BX       lr
    $d
        0x00000f7e:    0000        ..      DCW    0
        0x00000f80:    e000e100    ....    DCD    3758153984
    $t
    i.PendSVHandler
    PendSVHandler
        0x00000f84:    4770        pG      BX       lr
        0x00000f86:    0000        ..      MOVS     r0,r0
    i.Read_CAMERA_DATA_STATE
    Read_CAMERA_DATA_STATE
        0x00000f88:    4801        .H      LDR      r0,[pc,#4] ; [0xf90] = 0x40050000
        0x00000f8a:    6980        .i      LDR      r0,[r0,#0x18]
        0x00000f8c:    4770        pG      BX       lr
    $d
        0x00000f8e:    0000        ..      DCW    0
        0x00000f90:    40050000    ...@    DCD    1074069504
    $t
    i.Read_CAMERA_SDA
    Read_CAMERA_SDA
        0x00000f94:    4801        .H      LDR      r0,[pc,#4] ; [0xf9c] = 0x40050000
        0x00000f96:    6900        .i      LDR      r0,[r0,#0x10]
        0x00000f98:    4770        pG      BX       lr
    $d
        0x00000f9a:    0000        ..      DCW    0
        0x00000f9c:    40050000    ...@    DCD    1074069504
    $t
    i.SVCHandler
    SVCHandler
        0x00000fa0:    4770        pG      BX       lr
        0x00000fa2:    0000        ..      MOVS     r0,r0
    i.Set_CAMERA_DATA_STATE
    Set_CAMERA_DATA_STATE
        0x00000fa4:    4901        .I      LDR      r1,[pc,#4] ; [0xfac] = 0x40050000
        0x00000fa6:    6188        .a      STR      r0,[r1,#0x18]
        0x00000fa8:    4770        pG      BX       lr
    $d
        0x00000faa:    0000        ..      DCW    0
        0x00000fac:    40050000    ...@    DCD    1074069504
    $t
    i.Set_CAMERA_RST
    Set_CAMERA_RST
        0x00000fb0:    2001        .       MOVS     r0,#1
        0x00000fb2:    4901        .I      LDR      r1,[pc,#4] ; [0xfb8] = 0x40050000
        0x00000fb4:    6008        .`      STR      r0,[r1,#0]
        0x00000fb6:    4770        pG      BX       lr
    $d
        0x00000fb8:    40050000    ...@    DCD    1074069504
    $t
    i.Set_CAMERA_SCL
    Set_CAMERA_SCL
        0x00000fbc:    2001        .       MOVS     r0,#1
        0x00000fbe:    4901        .I      LDR      r1,[pc,#4] ; [0xfc4] = 0x40050000
        0x00000fc0:    6088        .`      STR      r0,[r1,#8]
        0x00000fc2:    4770        pG      BX       lr
    $d
        0x00000fc4:    40050000    ...@    DCD    1074069504
    $t
    i.Set_CAMERA_SDA
    Set_CAMERA_SDA
        0x00000fc8:    2001        .       MOVS     r0,#1
        0x00000fca:    4901        .I      LDR      r1,[pc,#4] ; [0xfd0] = 0x40050000
        0x00000fcc:    60c8        .`      STR      r0,[r1,#0xc]
        0x00000fce:    4770        pG      BX       lr
    $d
        0x00000fd0:    40050000    ...@    DCD    1074069504
    $t
    i.Set_CAMERA_SDA_R
    Set_CAMERA_SDA_R
        0x00000fd4:    2000        .       MOVS     r0,#0
        0x00000fd6:    4901        .I      LDR      r1,[pc,#4] ; [0xfdc] = 0x40050000
        0x00000fd8:    6148        Ha      STR      r0,[r1,#0x14]
        0x00000fda:    4770        pG      BX       lr
    $d
        0x00000fdc:    40050000    ...@    DCD    1074069504
    $t
    i.Set_CAMERA_SDA_W
    Set_CAMERA_SDA_W
        0x00000fe0:    2001        .       MOVS     r0,#1
        0x00000fe2:    4901        .I      LDR      r1,[pc,#4] ; [0xfe8] = 0x40050000
        0x00000fe4:    6148        Ha      STR      r0,[r1,#0x14]
        0x00000fe6:    4770        pG      BX       lr
    $d
        0x00000fe8:    40050000    ...@    DCD    1074069504
    $t
    i.Set_SysTick_CTRL
    Set_SysTick_CTRL
        0x00000fec:    4901        .I      LDR      r1,[pc,#4] ; [0xff4] = 0xe000e000
        0x00000fee:    6108        .a      STR      r0,[r1,#0x10]
        0x00000ff0:    4770        pG      BX       lr
    $d
        0x00000ff2:    0000        ..      DCW    0
        0x00000ff4:    e000e000    ....    DCD    3758153728
    $t
    i.Set_SysTick_LOAD
    Set_SysTick_LOAD
        0x00000ff8:    4901        .I      LDR      r1,[pc,#4] ; [0x1000] = 0xe000e000
        0x00000ffa:    6148        Ha      STR      r0,[r1,#0x14]
        0x00000ffc:    4770        pG      BX       lr
    $d
        0x00000ffe:    0000        ..      DCW    0
        0x00001000:    e000e000    ....    DCD    3758153728
    $t
    i.Set_SysTick_VALUE
    Set_SysTick_VALUE
        0x00001004:    4901        .I      LDR      r1,[pc,#4] ; [0x100c] = 0xe000e000
        0x00001006:    6188        .a      STR      r0,[r1,#0x18]
        0x00001008:    4770        pG      BX       lr
    $d
        0x0000100a:    0000        ..      DCW    0
        0x0000100c:    e000e000    ....    DCD    3758153728
    $t
    i.SysTickHandler
    SysTickHandler
        0x00001010:    b510        ..      PUSH     {r4,lr}
        0x00001012:    2000        .       MOVS     r0,#0
        0x00001014:    f7ffffea    ....    BL       Set_SysTick_CTRL ; 0xfec
        0x00001018:    4803        .H      LDR      r0,[pc,#12] ; [0x1028] = 0xe000ed00
        0x0000101a:    6840        @h      LDR      r0,[r0,#4]
        0x0000101c:    2101        .!      MOVS     r1,#1
        0x0000101e:    0649        I.      LSLS     r1,r1,#25
        0x00001020:    4308        .C      ORRS     r0,r0,r1
        0x00001022:    4901        .I      LDR      r1,[pc,#4] ; [0x1028] = 0xe000ed00
        0x00001024:    6048        H`      STR      r0,[r1,#4]
        0x00001026:    bd10        ..      POP      {r4,pc}
    $d
        0x00001028:    e000ed00    ....    DCD    3758157056
    $t
    i.SystemInit
    SystemInit
        0x0000102c:    4770        pG      BX       lr
        0x0000102e:    0000        ..      MOVS     r0,r0
    i.Timer_Handler
    Timer_Handler
        0x00001030:    b510        ..      PUSH     {r4,lr}
        0x00001032:    2007        .       MOVS     r0,#7
        0x00001034:    f7ffff7a    ..z.    BL       LED_toggle ; 0xf2c
        0x00001038:    a001        ..      ADR      r0,{pc}+8 ; 0x1040
        0x0000103a:    f000f81f    ....    BL       __0printf$bare ; 0x107c
        0x0000103e:    bd10        ..      POP      {r4,pc}
    $d
        0x00001040:    656d6974    time    DCD    1701669236
        0x00001044:    6e692072    r in    DCD    1852383346
        0x00001048:    636f2074    t oc    DCD    1668227188
        0x0000104c:    21727563    cur!    DCD    561149283
        0x00001050:    000a2121    !!..    DCD    663841
    $t
    i.UARTOVRHandler
    UARTOVRHandler
        0x00001054:    4770        pG      BX       lr
    i.UARTRXHandler
    UARTRXHandler
        0x00001056:    b510        ..      PUSH     {r4,lr}
        0x00001058:    2001        .       MOVS     r0,#1
        0x0000105a:    0780        ..      LSLS     r0,r0,#30
        0x0000105c:    f000f8a4    ....    BL       uart_ClearRxIRQ ; 0x11a8
        0x00001060:    2001        .       MOVS     r0,#1
        0x00001062:    f7ffff63    ..c.    BL       LED_toggle ; 0xf2c
        0x00001066:    bd10        ..      POP      {r4,pc}
    i.UARTTXHandler
    UARTTXHandler
        0x00001068:    b510        ..      PUSH     {r4,lr}
        0x0000106a:    2001        .       MOVS     r0,#1
        0x0000106c:    0780        ..      LSLS     r0,r0,#30
        0x0000106e:    f000f89e    ....    BL       uart_ClearTxIRQ ; 0x11ae
        0x00001072:    2002        .       MOVS     r0,#2
        0x00001074:    f7ffff5a    ..Z.    BL       LED_toggle ; 0xf2c
        0x00001078:    bd10        ..      POP      {r4,pc}
    i.UsageFaultHandler
    UsageFaultHandler
        0x0000107a:    4770        pG      BX       lr
    i.__0printf$bare
    __0printf$bare
    __1printf$bare
    __2printf
        0x0000107c:    b510        ..      PUSH     {r4,lr}
        0x0000107e:    4a02        .J      LDR      r2,[pc,#8] ; [0x1088] = 0x1109
        0x00001080:    4902        .I      LDR      r1,[pc,#8] ; [0x108c] = 0x20000004
        0x00001082:    f000f822    ..".    BL       _printf_core ; 0x10ca
        0x00001086:    bd10        ..      POP      {r4,pc}
    $d
        0x00001088:    00001109    ....    DCD    4361
        0x0000108c:    20000004    ...     DCD    536870916
    $t
    i.__ARM_common_switch8
    __ARM_common_switch8
        0x00001090:    b430        0.      PUSH     {r4,r5}
        0x00001092:    4674        tF      MOV      r4,lr
        0x00001094:    1e64        d.      SUBS     r4,r4,#1
        0x00001096:    7825        %x      LDRB     r5,[r4,#0]
        0x00001098:    1c64        d.      ADDS     r4,r4,#1
        0x0000109a:    42ab        .B      CMP      r3,r5
        0x0000109c:    d304        ..      BCC      0x10a8 ; __ARM_common_switch8 + 24
        0x0000109e:    5d63        c]      LDRB     r3,[r4,r5]
        0x000010a0:    005b        [.      LSLS     r3,r3,#1
        0x000010a2:    18e3        ..      ADDS     r3,r4,r3
        0x000010a4:    bc30        0.      POP      {r4,r5}
        0x000010a6:    4718        .G      BX       r3
        0x000010a8:    461d        .F      MOV      r5,r3
        0x000010aa:    e7f8        ..      B        0x109e ; __ARM_common_switch8 + 14
    i.__scatterload_copy
    __scatterload_copy
        0x000010ac:    e002        ..      B        0x10b4 ; __scatterload_copy + 8
        0x000010ae:    c808        ..      LDM      r0!,{r3}
        0x000010b0:    1f12        ..      SUBS     r2,r2,#4
        0x000010b2:    c108        ..      STM      r1!,{r3}
        0x000010b4:    2a00        .*      CMP      r2,#0
        0x000010b6:    d1fa        ..      BNE      0x10ae ; __scatterload_copy + 2
        0x000010b8:    4770        pG      BX       lr
    i.__scatterload_null
    __scatterload_null
        0x000010ba:    4770        pG      BX       lr
    i.__scatterload_zeroinit
    __scatterload_zeroinit
        0x000010bc:    2000        .       MOVS     r0,#0
        0x000010be:    e001        ..      B        0x10c4 ; __scatterload_zeroinit + 8
        0x000010c0:    c101        ..      STM      r1!,{r0}
        0x000010c2:    1f12        ..      SUBS     r2,r2,#4
        0x000010c4:    2a00        .*      CMP      r2,#0
        0x000010c6:    d1fb        ..      BNE      0x10c0 ; __scatterload_zeroinit + 4
        0x000010c8:    4770        pG      BX       lr
    i._printf_core
    _printf_core
        0x000010ca:    b5f8        ..      PUSH     {r3-r7,lr}
        0x000010cc:    4616        .F      MOV      r6,r2
        0x000010ce:    460f        .F      MOV      r7,r1
        0x000010d0:    4604        .F      MOV      r4,r0
        0x000010d2:    2500        .%      MOVS     r5,#0
        0x000010d4:    e003        ..      B        0x10de ; _printf_core + 20
        0x000010d6:    4639        9F      MOV      r1,r7
        0x000010d8:    47b0        .G      BLX      r6
        0x000010da:    1c64        d.      ADDS     r4,r4,#1
        0x000010dc:    1c6d        m.      ADDS     r5,r5,#1
        0x000010de:    7820         x      LDRB     r0,[r4,#0]
        0x000010e0:    2800        .(      CMP      r0,#0
        0x000010e2:    d1f8        ..      BNE      0x10d6 ; _printf_core + 12
        0x000010e4:    4628        (F      MOV      r0,r5
        0x000010e6:    bdf8        ..      POP      {r3-r7,pc}
    i.delay
    delay
        0x000010e8:    b500        ..      PUSH     {lr}
        0x000010ea:    4602        .F      MOV      r2,r0
        0x000010ec:    2000        .       MOVS     r0,#0
        0x000010ee:    f7ffff7d    ..}.    BL       Set_SysTick_CTRL ; 0xfec
        0x000010f2:    4610        .F      MOV      r0,r2
        0x000010f4:    f7ffff80    ....    BL       Set_SysTick_LOAD ; 0xff8
        0x000010f8:    2000        .       MOVS     r0,#0
        0x000010fa:    f7ffff83    ....    BL       Set_SysTick_VALUE ; 0x1004
        0x000010fe:    2007        .       MOVS     r0,#7
        0x00001100:    f7ffff74    ..t.    BL       Set_SysTick_CTRL ; 0xfec
        0x00001104:    bf30        0.      WFI      
        0x00001106:    bd00        ..      POP      {pc}
    i.fputc
    fputc
        0x00001108:    b570        p.      PUSH     {r4-r6,lr}
        0x0000110a:    4604        .F      MOV      r4,r0
        0x0000110c:    460d        .F      MOV      r5,r1
        0x0000110e:    2c0a        .,      CMP      r4,#0xa
        0x00001110:    d103        ..      BNE      0x111a ; fputc + 18
        0x00001112:    210d        .!      MOVS     r1,#0xd
        0x00001114:    0740        @.      LSLS     r0,r0,#29
        0x00001116:    f000f84d    ..M.    BL       uart_SendChar ; 0x11b4
        0x0000111a:    b2e1        ..      UXTB     r1,r4
        0x0000111c:    2001        .       MOVS     r0,#1
        0x0000111e:    0780        ..      LSLS     r0,r0,#30
        0x00001120:    f000f848    ..H.    BL       uart_SendChar ; 0x11b4
        0x00001124:    4620         F      MOV      r0,r4
        0x00001126:    bd70        p.      POP      {r4-r6,pc}
    i.main
    main
        0x00001128:    b508        ..      PUSH     {r3,lr}
        0x0000112a:    200f        .       MOVS     r0,#0xf
        0x0000112c:    490e        .I      LDR      r1,[pc,#56] ; [0x1168] = 0x40002000
        0x0000112e:    6048        H`      STR      r0,[r1,#4]
        0x00001130:    2003        .       MOVS     r0,#3
        0x00001132:    f7ffff1d    ....    BL       NVIC_EnableIRQ ; 0xf70
        0x00001136:    2004        .       MOVS     r0,#4
        0x00001138:    f7ffff1a    ....    BL       NVIC_EnableIRQ ; 0xf70
        0x0000113c:    2005        .       MOVS     r0,#5
        0x0000113e:    f7ffff17    ....    BL       NVIC_EnableIRQ ; 0xf70
        0x00001142:    2006        .       MOVS     r0,#6
        0x00001144:    f7ffff14    ....    BL       NVIC_EnableIRQ ; 0xf70
        0x00001148:    a408        ..      ADR      r4,{pc}+0x24 ; 0x116c
        0x0000114a:    f7fffb25    ..%.    BL       LCD_Init ; 0x798
        0x0000114e:    23ff        .#      MOVS     r3,#0xff
        0x00001150:    3341        A3      ADDS     r3,r3,#0x41
        0x00001152:    22f0        ."      MOVS     r2,#0xf0
        0x00001154:    2100        .!      MOVS     r1,#0
        0x00001156:    4608        .F      MOV      r0,r1
        0x00001158:    9400        ..      STR      r4,[sp,#0]
        0x0000115a:    f7fffe7f    ....    BL       LCD_ShowString ; 0xe5c
        0x0000115e:    f7feffff    ....    BL       CAMERA_Initial ; 0x160
        0x00001162:    bf00        ..      NOP      
        0x00001164:    e7fe        ..      B        0x1164 ; main + 60
    $d
        0x00001166:    0000        ..      DCW    0
        0x00001168:    40002000    . .@    DCD    1073750016
        0x0000116c:    62206f74    to b    DCD    1646292852
        0x00001170:    726f2c65    e,or    DCD    1919888485
        0x00001174:    746f6e20     not    DCD    1953459744
        0x00001178:    206f7420     to     DCD    544175136
        0x0000117c:    743f6562    be?t    DCD    1950311778
        0x00001180:    20746168    hat     DCD    544498024
        0x00001184:    61207369    is a    DCD    1629516649
        0x00001188:    65757120     que    DCD    1702195488
        0x0000118c:    6f697473    stio    DCD    1869182067
        0x00001190:    0000216e    n!..    DCD    8558
    $t
    i.photo
    photo
        0x00001194:    b500        ..      PUSH     {lr}
        0x00001196:    2001        .       MOVS     r0,#1
        0x00001198:    f7ffff04    ....    BL       Set_CAMERA_DATA_STATE ; 0xfa4
        0x0000119c:    bf00        ..      NOP      
        0x0000119e:    f7fffef3    ....    BL       Read_CAMERA_DATA_STATE ; 0xf88
        0x000011a2:    2800        .(      CMP      r0,#0
        0x000011a4:    d1fb        ..      BNE      0x119e ; photo + 10
        0x000011a6:    bd00        ..      POP      {pc}
    i.uart_ClearRxIRQ
    uart_ClearRxIRQ
        0x000011a8:    2102        .!      MOVS     r1,#2
        0x000011aa:    60c1        .`      STR      r1,[r0,#0xc]
        0x000011ac:    4770        pG      BX       lr
    i.uart_ClearTxIRQ
    uart_ClearTxIRQ
        0x000011ae:    2101        .!      MOVS     r1,#1
        0x000011b0:    60c1        .`      STR      r1,[r0,#0xc]
        0x000011b2:    4770        pG      BX       lr
    i.uart_SendChar
    uart_SendChar
        0x000011b4:    e005        ..      B        0x11c2 ; uart_SendChar + 14
        0x000011b6:    6842        Bh      LDR      r2,[r0,#4]
        0x000011b8:    07d2        ..      LSLS     r2,r2,#31
        0x000011ba:    0fd2        ..      LSRS     r2,r2,#31
        0x000011bc:    2a00        .*      CMP      r2,#0
        0x000011be:    d100        ..      BNE      0x11c2 ; uart_SendChar + 14
        0x000011c0:    e000        ..      B        0x11c4 ; uart_SendChar + 16
        0x000011c2:    e7f8        ..      B        0x11b6 ; uart_SendChar + 2
        0x000011c4:    bf00        ..      NOP      
        0x000011c6:    6001        .`      STR      r1,[r0,#0]
        0x000011c8:    4770        pG      BX       lr
    $d.realdata
    .constdata
    asc2_1608
        0x000011ca:    0000        ..      DCW    0
        0x000011cc:    00000000    ....    DCD    0
        0x000011d0:    00000000    ....    DCD    0
        0x000011d4:    00000000    ....    DCD    0
        0x000011d8:    00000000    ....    DCD    0
        0x000011dc:    00000000    ....    DCD    0
        0x000011e0:    0c00cc1f    ....    DCD    201378847
        0x000011e4:    00000000    ....    DCD    0
        0x000011e8:    00000000    ....    DCD    0
        0x000011ec:    00300008    ..0.    DCD    3145736
        0x000011f0:    00080060    `...    DCD    524384
        0x000011f4:    00600030    0.`.    DCD    6291504
        0x000011f8:    20020000    ...     DCD    537001984
        0x000011fc:    201efc03    ...     DCD    538901507
        0x00001200:    fc032002    . ..    DCD    4228063234
        0x00001204:    2002201e    . .     DCD    537010206
        0x00001208:    00000000    ....    DCD    0
        0x0000120c:    0411180e    ....    DCD    68229134
        0x00001210:    8410ff3f    ?...    DCD    2215706431
        0x00001214:    0000780c    .x..    DCD    30732
        0x00001218:    000f0000    ....    DCD    983040
        0x0000121c:    380f8410    ...8    DCD    940540944
        0x00001220:    7807c000    ...x    DCD    2013773824
        0x00001224:    78008418    ...x    DCD    2013299736
        0x00001228:    78000000    ...x    DCD    2013265920
        0x0000122c:    c410840f    ....    DCD    3289416719
        0x00001230:    980e2411    .$..    DCD    2551063569
        0x00001234:    8400e400    ....    DCD    2214650880
        0x00001238:    00080800    ....    DCD    526336
        0x0000123c:    00700068    h.p.    DCD    7340136
        0x00001240:    00000000    ....    DCD    0
        0x00001244:    00000000    ....    DCD    0
        0x00001248:    00000000    ....    DCD    0
        0x0000124c:    00000000    ....    DCD    0
        0x00001250:    1818e007    ....    DCD    404283399
        0x00001254:    02400420     .@.    DCD    37749792
        0x00001258:    00000000    ....    DCD    0
        0x0000125c:    04200240    @. .    DCD    69206592
        0x00001260:    e0071818    ....    DCD    3758561304
        0x00001264:    00000000    ....    DCD    0
        0x00001268:    40020000    ...@    DCD    1073872896
        0x0000126c:    80014002    .@..    DCD    2147565570
        0x00001270:    8001f00f    ....    DCD    2147610639
        0x00001274:    40024002    .@.@    DCD    1073889282
        0x00001278:    80000000    ....    DCD    2147483648
        0x0000127c:    80008000    ....    DCD    2147516416
        0x00001280:    8000f80f    ....    DCD    2147547151
        0x00001284:    80008000    ....    DCD    2147516416
        0x00001288:    01000000    ....    DCD    16777216
        0x0000128c:    0e000d00    ....    DCD    234884352
        0x00001290:    00000000    ....    DCD    0
        0x00001294:    00000000    ....    DCD    0
        0x00001298:    00000000    ....    DCD    0
        0x0000129c:    80008000    ....    DCD    2147516416
        0x000012a0:    80008000    ....    DCD    2147516416
        0x000012a4:    80008000    ....    DCD    2147516416
        0x000012a8:    00008000    ....    DCD    32768
        0x000012ac:    0c000c00    ....    DCD    201329664
        0x000012b0:    00000000    ....    DCD    0
        0x000012b4:    00000000    ....    DCD    0
        0x000012b8:    00000000    ....    DCD    0
        0x000012bc:    18000600    ....    DCD    402654720
        0x000012c0:    80016000    .`..    DCD    2147573760
        0x000012c4:    00180006    ....    DCD    1572870
        0x000012c8:    00000020     ...    DCD    32
        0x000012cc:    0808f007    ....    DCD    134803463
        0x000012d0:    04100410    ....    DCD    68158480
        0x000012d4:    f0070808    ....    DCD    4026992648
        0x000012d8:    00000000    ....    DCD    0
        0x000012dc:    04080408    ....    DCD    67634184
        0x000012e0:    0400fc1f    ....    DCD    67173407
        0x000012e4:    00000400    ....    DCD    1024
        0x000012e8:    00000000    ....    DCD    0
        0x000012ec:    14100c0e    ....    DCD    336595982
        0x000012f0:    44102410    .$.D    DCD    1141908496
        0x000012f4:    0c0e8411    ....    DCD    202277905
        0x000012f8:    00000000    ....    DCD    0
        0x000012fc:    0410180c    ....    DCD    68163596
        0x00001300:    04110411    ....    DCD    68224017
        0x00001304:    700c8812    ...p    DCD    1879869458
        0x00001308:    00000000    ....    DCD    0
        0x0000130c:    2003e000    ...     DCD    537124864
        0x00001310:    24082404    .$.$    DCD    604513284
        0x00001314:    2400fc1f    ...$    DCD    604044319
        0x00001318:    00000000    ....    DCD    0
        0x0000131c:    8410981f    ....    DCD    2215680031
        0x00001320:    04110411    ....    DCD    68224017
        0x00001324:    70108810    ...p    DCD    1880131600
        0x00001328:    00000000    ....    DCD    0
        0x0000132c:    8808f007    ....    DCD    2282287111
        0x00001330:    04110411    ....    DCD    68224017
        0x00001334:    70008818    ...p    DCD    1879083032
        0x00001338:    00000000    ....    DCD    0
        0x0000133c:    0010001c    ....    DCD    1048604
        0x00001340:    0013fc10    ....    DCD    1309712
        0x00001344:    0010001c    ....    DCD    1048604
        0x00001348:    00000000    ....    DCD    0
        0x0000134c:    4411380e    .8.D    DCD    1141979150
        0x00001350:    84108410    ....    DCD    2215674896
        0x00001354:    380e4411    .D.8    DCD    940459025
        0x00001358:    00000000    ....    DCD    0
        0x0000135c:    8c080007    ....    DCD    2349334535
        0x00001360:    44104410    .D.D    DCD    1141916688
        0x00001364:    f0078808    ....    DCD    4027025416
        0x00001368:    00000000    ....    DCD    0
        0x0000136c:    00000000    ....    DCD    0
        0x00001370:    0c030c03    ....    DCD    201526275
        0x00001374:    00000000    ....    DCD    0
        0x00001378:    00000000    ....    DCD    0
        0x0000137c:    01000000    ....    DCD    16777216
        0x00001380:    00000601    ....    DCD    1537
        0x00001384:    00000000    ....    DCD    0
        0x00001388:    00000000    ....    DCD    0
        0x0000138c:    40018000    ...@    DCD    1073840128
        0x00001390:    10042002    . ..    DCD    268705794
        0x00001394:    04100808    ....    DCD    68159496
        0x00001398:    20020000    ...     DCD    537001984
        0x0000139c:    20022002    . .     DCD    537010178
        0x000013a0:    20022002    . .     DCD    537010178
        0x000013a4:    20022002    . .     DCD    537010178
        0x000013a8:    00000000    ....    DCD    0
        0x000013ac:    08080410    ....    DCD    134743056
        0x000013b0:    20021004    ...     DCD    537006084
        0x000013b4:    80004001    .@..    DCD    2147500033
        0x000013b8:    00000000    ....    DCD    0
        0x000013bc:    0012000e    ....    DCD    1179662
        0x000013c0:    6c100c10    ...l    DCD    1812990992
        0x000013c4:    000f8010    ....    DCD    1015824
        0x000013c8:    e0030000    ....    DCD    3758292992
        0x000013cc:    e413180c    ....    DCD    3826456588
        0x000013d0:    c4172414    .$..    DCD    3289850900
        0x000013d4:    d0072808    .(..    DCD    3490129928
        0x000013d8:    04000000    ....    DCD    67108864
        0x000013dc:    c4033c00    .<..    DCD    3288546304
        0x000013e0:    4007401c    .@.@    DCD    1074216988
        0x000013e4:    1c00e400    ....    DCD    469820416
        0x000013e8:    04100400    ....    DCD    68158464
        0x000013ec:    0411fc1f    ....    DCD    68287519
        0x000013f0:    04110411    ....    DCD    68224017
        0x000013f4:    7000880e    ...p    DCD    1879083022
        0x000013f8:    e0030000    ....    DCD    3758292992
        0x000013fc:    0410180c    ....    DCD    68163596
        0x00001400:    04100410    ....    DCD    68158480
        0x00001404:    101c0810    ....    DCD    270272528
        0x00001408:    04100000    ....    DCD    68157440
        0x0000140c:    0410fc1f    ....    DCD    68221983
        0x00001410:    04100410    ....    DCD    68158480
        0x00001414:    f0070808    ....    DCD    4026992648
        0x00001418:    04100000    ....    DCD    68157440
        0x0000141c:    0411fc1f    ....    DCD    68287519
        0x00001420:    c4170411    ....    DCD    3289842705
        0x00001424:    18080410    ....    DCD    403178512
        0x00001428:    04100000    ....    DCD    68157440
        0x0000142c:    0411fc1f    ....    DCD    68287519
        0x00001430:    c0170011    ....    DCD    3222732817
        0x00001434:    00080010    ....    DCD    524304
        0x00001438:    e0030000    ....    DCD    3758292992
        0x0000143c:    0410180c    ....    DCD    68163596
        0x00001440:    44100410    ...D    DCD    1141900304
        0x00001444:    4000781c    .x.@    DCD    1073772572
        0x00001448:    04100000    ....    DCD    68157440
        0x0000144c:    8410fc1f    ....    DCD    2215705631
        0x00001450:    80008000    ....    DCD    2147516416
        0x00001454:    fc1f8410    ....    DCD    4229923856
        0x00001458:    00000410    ....    DCD    1040
        0x0000145c:    04100410    ....    DCD    68158480
        0x00001460:    0410fc1f    ....    DCD    68221983
        0x00001464:    00000410    ....    DCD    1040
        0x00001468:    03000000    ....    DCD    50331648
        0x0000146c:    01100100    ....    DCD    17826048
        0x00001470:    fe1f0110    ....    DCD    4263444752
        0x00001474:    00100010    ....    DCD    1048592
        0x00001478:    04100000    ....    DCD    68157440
        0x0000147c:    0411fc1f    ....    DCD    68287519
        0x00001480:    64148003    ...d    DCD    1679065091
        0x00001484:    04101c18    ....    DCD    68164632
        0x00001488:    04100000    ....    DCD    68157440
        0x0000148c:    0410fc1f    ....    DCD    68221983
        0x00001490:    04000400    ....    DCD    67109888
        0x00001494:    0c000400    ....    DCD    201327616
        0x00001498:    04100000    ....    DCD    68157440
        0x0000149c:    001ffc1f    ....    DCD    2096159
        0x000014a0:    001ffc00    ....    DCD    2096128
        0x000014a4:    0410fc1f    ....    DCD    68221983
        0x000014a8:    04100000    ....    DCD    68157440
        0x000014ac:    040cfc1f    ....    DCD    67959839
        0x000014b0:    e0000003    ....    DCD    3758096387
        0x000014b4:    fc1f1810    ....    DCD    4229896208
        0x000014b8:    f0070010    ....    DCD    4026990608
        0x000014bc:    04100808    ....    DCD    68159496
        0x000014c0:    04100410    ....    DCD    68158480
        0x000014c4:    f0070808    ....    DCD    4026992648
        0x000014c8:    04100000    ....    DCD    68157440
        0x000014cc:    8410fc1f    ....    DCD    2215705631
        0x000014d0:    80108010    ....    DCD    2148565008
        0x000014d4:    000f8010    ....    DCD    1015824
        0x000014d8:    f0070000    ....    DCD    4026990592
        0x000014dc:    24101808    ...$    DCD    605034504
        0x000014e0:    1c102410    .$..    DCD    470819856
        0x000014e4:    f2070a08    ....    DCD    4060547592
        0x000014e8:    04100000    ....    DCD    68157440
        0x000014ec:    0411fc1f    ....    DCD    68287519
        0x000014f0:    c0110011    ....    DCD    3222339601
        0x000014f4:    0c0e3011    .0..    DCD    202256401
        0x000014f8:    00000400    ....    DCD    1024
        0x000014fc:    04111c0e    ....    DCD    68230158
        0x00001500:    84108410    ....    DCD    2215674896
        0x00001504:    381c4410    .D.8    DCD    941376528
        0x00001508:    00180000    ....    DCD    1572864
        0x0000150c:    04100010    ....    DCD    68157456
        0x00001510:    0410fc1f    ....    DCD    68221983
        0x00001514:    00180010    ....    DCD    1572880
        0x00001518:    00100000    ....    DCD    1048576
        0x0000151c:    0410f81f    ....    DCD    68220959
        0x00001520:    04000400    ....    DCD    67109888
        0x00001524:    f81f0410    ....    DCD    4162782224
        0x00001528:    00100010    ....    DCD    1048592
        0x0000152c:    e011001e    ....    DCD    3759210526
        0x00001530:    70001c00    ...p    DCD    1879055360
        0x00001534:    001c8013    ....    DCD    1867795
        0x00001538:    c01f0010    ....    DCD    3223257104
        0x0000153c:    e0003c10    .<..    DCD    3758111760
        0x00001540:    e000001f    ....    DCD    3758096415
        0x00001544:    c01f3c10    .<..    DCD    3223272464
        0x00001548:    04100000    ....    DCD    68157440
        0x0000154c:    34160c18    ...4    DCD    873860120
        0x00001550:    c001c001    ....    DCD    3221340161
        0x00001554:    0c183416    .4..    DCD    202912790
        0x00001558:    00100410    ....    DCD    1049616
        0x0000155c:    0413001c    ....    DCD    68354076
        0x00001560:    0413fc00    ....    DCD    68418560
        0x00001564:    0010001c    ....    DCD    1048604
        0x00001568:    04080000    ....    DCD    67633152
        0x0000156c:    64101c10    ...d    DCD    1678777360
        0x00001570:    04138410    ....    DCD    68387856
        0x00001574:    1810041c    ....    DCD    403702812
        0x00001578:    00000000    ....    DCD    0
        0x0000157c:    00000000    ....    DCD    0
        0x00001580:    0240fe7f    ..@.    DCD    37813887
        0x00001584:    02400240    @.@.    DCD    37749312
        0x00001588:    00000000    ....    DCD    0
        0x0000158c:    000c0030    0...    DCD    786480
        0x00001590:    60008003    ...`    DCD    1610645507
        0x00001594:    03001c00    ....    DCD    50338816
        0x00001598:    00000000    ....    DCD    0
        0x0000159c:    02400240    @.@.    DCD    37749312
        0x000015a0:    fe7f0240    @...    DCD    4269736512
        0x000015a4:    00000000    ....    DCD    0
        0x000015a8:    00000000    ....    DCD    0
        0x000015ac:    00200000    .. .    DCD    2097152
        0x000015b0:    00400040    @.@.    DCD    4194368
        0x000015b4:    00200040    @. .    DCD    2097216
        0x000015b8:    01000000    ....    DCD    16777216
        0x000015bc:    01000100    ....    DCD    16777472
        0x000015c0:    01000100    ....    DCD    16777472
        0x000015c4:    01000100    ....    DCD    16777472
        0x000015c8:    00000100    ....    DCD    256
        0x000015cc:    00400040    @.@.    DCD    4194368
        0x000015d0:    00000020     ...    DCD    32
        0x000015d4:    00000000    ....    DCD    0
        0x000015d8:    00000000    ....    DCD    0
        0x000015dc:    24019800    ...$    DCD    604084224
        0x000015e0:    44014401    .D.D    DCD    1140933633
        0x000015e4:    fc004401    .D..    DCD    4227875841
        0x000015e8:    00100400    ....    DCD    1049600
        0x000015ec:    8800fc1f    ....    DCD    2281765919
        0x000015f0:    04010401    ....    DCD    67175425
        0x000015f4:    70008800    ...p    DCD    1879083008
        0x000015f8:    00000000    ....    DCD    0
        0x000015fc:    88007000    .p..    DCD    2281730048
        0x00001600:    04010401    ....    DCD    67175425
        0x00001604:    88000401    ....    DCD    2281702401
        0x00001608:    00000000    ....    DCD    0
        0x0000160c:    88007000    .p..    DCD    2281730048
        0x00001610:    04010401    ....    DCD    67175425
        0x00001614:    fc1f0811    ....    DCD    4229892113
        0x00001618:    00000400    ....    DCD    1024
        0x0000161c:    4401f800    ...D    DCD    1140979712
        0x00001620:    44014401    .D.D    DCD    1140933633
        0x00001624:    c8004401    .D..    DCD    3355460609
        0x00001628:    00000000    ....    DCD    0
        0x0000162c:    04010401    ....    DCD    67175425
        0x00001630:    0411fc0f    ....    DCD    68287503
        0x00001634:    00110411    ....    DCD    1115153
        0x00001638:    00000018    ....    DCD    24
        0x0000163c:    2901d600    ...)    DCD    687986176
        0x00001640:    29012901    .).)    DCD    687941889
        0x00001644:    0601c901    ....    DCD    100780289
        0x00001648:    04100000    ....    DCD    68157440
        0x0000164c:    8400fc1f    ....    DCD    2214657055
        0x00001650:    00010001    ....    DCD    65537
        0x00001654:    fc000401    ....    DCD    4227859457
        0x00001658:    00000400    ....    DCD    1024
        0x0000165c:    04190401    ....    DCD    68748289
        0x00001660:    0400fc19    ....    DCD    67173401
        0x00001664:    00000400    ....    DCD    1024
        0x00001668:    00000000    ....    DCD    0
        0x0000166c:    01000300    ....    DCD    16777984
        0x00001670:    01190101    ....    DCD    18415873
        0x00001674:    0000fe19    ....    DCD    65049
        0x00001678:    04100000    ....    DCD    68157440
        0x0000167c:    2400fc1f    ...$    DCD    604044319
        0x00001680:    b4014000    .@..    DCD    3019980800
        0x00001684:    04010c01    ....    DCD    67177473
        0x00001688:    00000000    ....    DCD    0
        0x0000168c:    04100410    ....    DCD    68158480
        0x00001690:    0400fc1f    ....    DCD    67173407
        0x00001694:    00000400    ....    DCD    1024
        0x00001698:    04010000    ....    DCD    67174400
        0x0000169c:    0401fc01    ....    DCD    67238913
        0x000016a0:    fc010001    ....    DCD    4227923969
        0x000016a4:    00010401    ....    DCD    66561
        0x000016a8:    0401fc00    ....    DCD    67238912
        0x000016ac:    8400fc01    ....    DCD    2214657025
        0x000016b0:    00010001    ....    DCD    65537
        0x000016b4:    fc000401    ....    DCD    4227859457
        0x000016b8:    00000400    ....    DCD    1024
        0x000016bc:    0401f800    ....    DCD    67237888
        0x000016c0:    04010401    ....    DCD    67175425
        0x000016c4:    f8000401    ....    DCD    4160750593
        0x000016c8:    01010000    ....    DCD    16842752
        0x000016cc:    8500ff01    ....    DCD    2231435009
        0x000016d0:    04010401    ....    DCD    67175425
        0x000016d4:    70008800    ...p    DCD    1879083008
        0x000016d8:    00000000    ....    DCD    0
        0x000016dc:    88007000    .p..    DCD    2281730048
        0x000016e0:    04010401    ....    DCD    67175425
        0x000016e4:    ff010501    ....    DCD    4278256897
        0x000016e8:    04010100    ....    DCD    67174656
        0x000016ec:    fc010401    ....    DCD    4227924993
        0x000016f0:    04018400    ....    DCD    67208192
        0x000016f4:    80010001    ....    DCD    2147549185
        0x000016f8:    00000000    ....    DCD    0
        0x000016fc:    2401cc00    ...$    DCD    604097536
        0x00001700:    24012401    .$.$    DCD    604054529
        0x00001704:    98012401    .$..    DCD    2550211585
        0x00001708:    00000000    ....    DCD    0
        0x0000170c:    00010001    ....    DCD    65537
        0x00001710:    0401f807    ....    DCD    67237895
        0x00001714:    00000401    ....    DCD    1025
        0x00001718:    00010000    ....    DCD    65536
        0x0000171c:    0400f801    ....    DCD    67172353
        0x00001720:    04000400    ....    DCD    67109888
        0x00001724:    fc010801    ....    DCD    4227926017
        0x00001728:    00010400    ....    DCD    66560
        0x0000172c:    70018001    ...p    DCD    1879146497
        0x00001730:    10000c00    ....    DCD    268438528
        0x00001734:    80016001    .`..    DCD    2147573761
        0x00001738:    f0010001    ....    DCD    4026597377
        0x0000173c:    30000c01    ...0    DCD    805309441
        0x00001740:    3000c001    ...0    DCD    805355521
        0x00001744:    f0010c01    ....    DCD    4026600449
        0x00001748:    00000001    ....    DCD    1
        0x0000174c:    8c010401    ....    DCD    2348876801
        0x00001750:    70017400    .t.p    DCD    1879143424
        0x00001754:    04018c01    ....    DCD    67210241
        0x00001758:    01010000    ....    DCD    16842752
        0x0000175c:    71018101    ...q    DCD    1895923969
        0x00001760:    18000e00    ....    DCD    402656768
        0x00001764:    80016001    .`..    DCD    2147573761
        0x00001768:    00000001    ....    DCD    1
        0x0000176c:    0c018401    ....    DCD    201425921
        0x00001770:    44013401    .4.D    DCD    1140929537
        0x00001774:    0c018401    ....    DCD    201425921
        0x00001778:    00000000    ....    DCD    0
        0x0000177c:    00000000    ....    DCD    0
        0x00001780:    00010000    ....    DCD    65536
        0x00001784:    0240fc3e    >.@.    DCD    37813310
        0x00001788:    00000240    @...    DCD    576
        0x0000178c:    00000000    ....    DCD    0
        0x00001790:    ffff0000    ....    DCD    4294901760
        0x00001794:    00000000    ....    DCD    0
        0x00001798:    00000000    ....    DCD    0
        0x0000179c:    02400240    @.@.    DCD    37749312
        0x000017a0:    0001fc3e    >...    DCD    130110
        0x000017a4:    00000000    ....    DCD    0
        0x000017a8:    00000000    ....    DCD    0
        0x000017ac:    00800060    `...    DCD    8388704
        0x000017b0:    00400080    ..@.    DCD    4194432
        0x000017b4:    00200040    @. .    DCD    2097216
        0x000017b8:    0020         .      DCW    32
    .constdata
    camera_initial_reg
        0x000017ba:    0331        1.      DCW    817
        0x000017bc:    82083011    .0..    DCD    2181574673
        0x000017c0:    31420830    0.B1    DCD    826411056
        0x000017c4:    17300303    ..0.    DCD    389022467
        0x000017c8:    ff1830ff    .0..    DCD    4279775487
        0x000017cc:    301a3430    04.0    DCD    807023664
        0x000017d0:    08310337    7.1.    DCD    137429815
        0x000017d4:    36303601    .606    DCD    909129217
        0x000017d8:    360e3136    61.6    DCD    906899766
        0x000017dc:    3336e232    2.63    DCD    859234866
        0x000017e0:    e0213612    .6!.    DCD    3760272914
        0x000017e4:    37a00437    7..7    DCD    933233719
        0x000017e8:    15375a03    .Z7.    DCD    355949059
        0x000017ec:    01173778    x7..    DCD    18298744
        0x000017f0:    37600b37    7.`7    DCD    929041207
        0x000017f4:    05391a05    ..9.    DCD    87628293
        0x000017f8:    10063902    .9..    DCD    268843266
        0x000017fc:    370a0139    9..7    DCD    923402553
        0x00001800:    00361231    1.6.    DCD    3543601
        0x00001804:    33013608    .6.3    DCD    855717384
        0x00001808:    36602d30    0-`6    DCD    912272688
        0x0000180c:    1b375220     R7.    DCD    456610336
        0x00001810:    501c4720     G.P    DCD    1344030496
        0x00001814:    3a43133a    :.C:    DCD    977474362
        0x00001818:    193a0018    ..:.    DCD    423231512
        0x0000181c:    133536f8    .65.    DCD    322254584
        0x00001820:    36033636    66.6    DCD    906180150
        0x00001824:    22364034    4@6"    DCD    573980724
        0x00001828:    34013c01    .<.4    DCD    872496129
        0x0000182c:    3c28043c    <.(<    DCD    1009255484
        0x00001830:    063c9805    ..<.    DCD    104634373
        0x00001834:    08073c00    .<..    DCD    134691840
        0x00001838:    3c00083c    <..<    DCD    1006635068
        0x0000183c:    0a3c1c09    ..<.    DCD    171711497
        0x00001840:    400b3c9c    .<.@    DCD    1074478236
        0x00001844:    38001038    8..8    DCD    939528248
        0x00001848:    12381011    ..8.    DCD    305664017
        0x0000184c:    64083700    .7.d    DCD    1678259968
        0x00001850:    40020140    @..@    DCD    1073873216
        0x00001854:    00301a05    ..0.    DCD    3152389
        0x00001858:    ff043000    .0..    DCD    4278464512
        0x0000185c:    30580e30    0.X0    DCD    811077168
        0x00001860:    0043002e    ..C.    DCD    4390958
        0x00001864:    011f5060    `P..    DCD    18829408
        0x00001868:    50000e44    D..P    DCD    1342180932
        0x0000186c:    0f3aa700    ..:.    DCD    255502080
        0x00001870:    28103a30    0:.(    DCD    672152112
        0x00001874:    3a301b3a    :.0:    DCD    976231226
        0x00001878:    113a261e    .&:.    DCD    289023518
        0x0000187c:    141f3a60    `:..    DCD    337590880
        0x00001880:    58230058    X.#X    DCD    1478688856
        0x00001884:    02581401    ..X.    DCD    39326721
        0x00001888:    0f03580f    .X..    DCD    251877391
        0x0000188c:    58120458    X..X    DCD    1477575768
        0x00001890:    06582605    .&X.    DCD    106440197
        0x00001894:    0807580c    .X..    DCD    134699020
        0x00001898:    58050858    X..X    DCD    1476724824
        0x0000189c:    0a580509    ..X.    DCD    173540617
        0x000018a0:    0d0b5808    .X..    DCD    218847240
        0x000018a4:    58080c58    X..X    DCD    1476922456
        0x000018a8:    0e58030d    ..X.    DCD    240648973
        0x000018ac:    000f5800    .X..    DCD    1005568
        0x000018b0:    58031058    X..X    DCD    1476595800
        0x000018b4:    12580911    ..X.    DCD    307759377
        0x000018b8:    03135807    .X..    DCD    51599367
        0x000018bc:    58001458    X..X    DCD    1476400216
        0x000018c0:    16580115    ..X.    DCD    374866197
        0x000018c4:    08175803    .X..    DCD    135747587
        0x000018c8:    580d1858    X..X    DCD    1477253208
        0x000018cc:    1a580819    ..X.    DCD    441976857
        0x000018d0:    061b5805    .X..    DCD    102455301
        0x000018d4:    58081c58    X..X    DCD    1476926552
        0x000018d8:    1e580e1d    ..X.    DCD    509087261
        0x000018dc:    171f5829    )X..    DCD    387930153
        0x000018e0:    58112058    X .X    DCD    1477517400
        0x000018e4:    22581121    !.X"    DCD    576196897
        0x000018e8:    28235815    .X#(    DCD    673404949
        0x000018ec:    58462458    X$FX    DCD    1480991832
        0x000018f0:    26582625    %&X&    DCD    643311141
        0x000018f4:    26275808    .X'&    DCD    640112648
        0x000018f8:    58642858    X(dX    DCD    1482958936
        0x000018fc:    2a582629    )&X*    DCD    710420009
        0x00001900:    222b5824    $X+"    DCD    573265956
        0x00001904:    58242c58    X,$X    DCD    1478765656
        0x00001908:    2e58242d    -$X.    DCD    777528365
        0x0000190c:    222f5806    .X/"    DCD    573528070
        0x00001910:    58403058    X0@X    DCD    1480601688
        0x00001914:    32584231    1BX2    DCD    844644913
        0x00001918:    26335824    $X3&    DCD    640899108
        0x0000191c:    58243458    X4$X    DCD    1478767704
        0x00001920:    36582235    5"X6    DCD    911745589
        0x00001924:    26375822    "X7&    DCD    641161250
        0x00001928:    58443858    X8DX    DCD    1480865880
        0x0000192c:    3a582439    9$X:    DCD    978854969
        0x00001930:    283b5826    &X;(    DCD    674977830
        0x00001934:    58423c58    X<BX    DCD    1480735832
        0x00001938:    8051ce3d    =.Q.    DCD    2152844861
        0x0000193c:    f28151ff    .Q..    DCD    4068561407
        0x00001940:    51008251    Q..Q    DCD    1358987857
        0x00001944:    84511483    ..Q.    DCD    2219906179
        0x00001948:    24855125    %Q.$    DCD    612716837
        0x0000194c:    51098651    Q..Q    DCD    1359578705
        0x00001950:    88510987    ..Q.    DCD    2287012231
        0x00001954:    75895109    .Q.u    DCD    1971933449
        0x00001958:    51548a51    Q.TQ    DCD    1364494929
        0x0000195c:    8c51e08b    ..Q.    DCD    2354176139
        0x00001960:    428d51b2    .Q.B    DCD    1116557746
        0x00001964:    513d8e51    Q.=Q    DCD    1362988625
        0x00001968:    9051568f    .VQ.    DCD    2421249679
        0x0000196c:    f8915146    FQ..    DCD    4170273094
        0x00001970:    51049251    Q..Q    DCD    1359254097
        0x00001974:    94517093    .pQ.    DCD    2488365203
        0x00001978:    f09551f0    .Q..    DCD    4036317680
        0x0000197c:    51039651    Q..Q    DCD    1359189585
        0x00001980:    98510197    ..Q.    DCD    2555445655
        0x00001984:    12995104    .Q..    DCD    312037636
        0x00001988:    51049a51    Q..Q    DCD    1359256145
        0x0000198c:    9c51009b    ..Q.    DCD    2622554267
        0x00001990:    829d5106    .Q..    DCD    2191347974
        0x00001994:    54389e51    Q.8T    DCD    1412996689
        0x00001998:    81540180    ..T.    DCD    2169766272
        0x0000199c:    14825408    .T..    DCD    344085512
        0x000019a0:    54288354    T.(T    DCD    1411941204
        0x000019a4:    85545184    .QT.    DCD    2236895620
        0x000019a8:    71865465    eT.q    DCD    1904628837
        0x000019ac:    547d8754    T.}T    DCD    1417512788
        0x000019b0:    89548788    ..T.    DCD    2304018312
        0x000019b4:    9a8a5491    .T..    DCD    2592756881
        0x000019b8:    54aa8b54    T..T    DCD    1420462932
        0x000019bc:    8d54b88c    ..T.    DCD    2371139724
        0x000019c0:    dd8e54cd    .T..    DCD    3717092557
        0x000019c4:    54ea8f54    T..T    DCD    1424658260
        0x000019c8:    81531d90    ..S.    DCD    2169707920
        0x000019cc:    5b82531e    .S.[    DCD    1535267614
        0x000019d0:    53088353    S..S    DCD    1393066835
        0x000019d4:    85530a84    ..S.    DCD    2236811908
        0x000019d8:    8886537e    ~S..    DCD    2290504574
        0x000019dc:    537c8753    S.|S    DCD    1400670035
        0x000019e0:    89536c88    .lS.    DCD    2303945864
        0x000019e4:    018a5310    .S..    DCD    25842448
        0x000019e8:    55988b53    S..U    DCD    1436060499
        0x000019ec:    83550680    ..U.    DCD    2203387520
        0x000019f0:    10845540    @U..    DCD    277108032
        0x000019f4:    55108955    U..U    DCD    1427147093
        0x000019f8:    8b55008a    ..U.    DCD    2337603722
        0x000019fc:    401d50f8    .P.@    DCD    1075663096
        0x00001a00:    53080053    S..S    DCD    1393033299
        0x00001a04:    02533001    .0S.    DCD    39006209
        0x00001a08:    00035310    .S..    DCD    217872
        0x00001a0c:    53080453    S..S    DCD    1393034323
        0x00001a10:    06533005    .0S.    DCD    106115077
        0x00001a14:    16075308    .S..    DCD    369578760
        0x00001a18:    53080953    S..S    DCD    1393035603
        0x00001a1c:    0b53300a    .0S.    DCD    190001162
        0x00001a20:    060c5304    .S..    DCD    101470980
        0x00001a24:    30002550    P%.0    DCD    805315920
        0x00001a28:    35300208    ..05    DCD    892338696
        0x00001a2c:    72363021    !06r    DCD    1916153889
        0x00001a30:    3808073c    <..8    DCD    940050236
        0x00001a34:    21384720     G8!    DCD    557336352
        0x00001a38:    31143801    .8.1    DCD    823408641
        0x00001a3c:    38311538    8.18    DCD    942740792
        0x00001a40:    01380000    ..8.    DCD    20447232
        0x00001a44:    00023800    .8..    DCD    145408
        0x00001a48:    38040338    8..8    DCD    939787064
        0x00001a4c:    05380a04    ..8.    DCD    87558660
        0x00001a50:    0706383f    ?8..    DCD    117848127
        0x00001a54:    389b0738    8..8    DCD    949684024
        0x00001a58:    09380208    ..8.    DCD    154665480
        0x00001a5c:    010a3880    .8..    DCD    17447040
        0x00001a60:    38e00b38    8..8    DCD    954207032
        0x00001a64:    0d38070c    ..8.    DCD    221775628
        0x00001a68:    030e3868    h8..    DCD    51263592
        0x00001a6c:    36d80f38    8..6    DCD    920129336
        0x00001a70:    12360018    ..6.    DCD    305528856
        0x00001a74:    52093729    )7.R    DCD    1376335657
        0x00001a78:    3a030c37    7..:    DCD    973278263
        0x00001a7c:    033a0b02    ..:.    DCD    54135554
        0x00001a80:    0b143a88    .:..    DCD    185875080
        0x00001a84:    4088153a    :..@    DCD    1082660154
        0x00001a88:    02300204    ..0.    DCD    36700676
        0x00001a8c:    c306301c    .0..    DCD    3271962652
        0x00001a90:    44031347    G..D    DCD    1141052231
        0x00001a94:    0b460407    ..F.    DCD    189137927
        0x00001a98:    220c4635    5F."    DCD    571229749
        0x00001a9c:    38223748    H7"8    DCD    941766472
        0x00001aa0:    01500224    $.P.    DCD    22020644
        0x00001aa4:    000335a7    .5..    DCD    210343
        0x00001aa8:    3b83003b    ;..;    DCD    998441019
        0x00001aac:    12320000    ..2.    DCD    305266688
        0x00001ab0:    01083803    .8..    DCD    17315843
        0x00001ab4:    38400938    8.@8    DCD    943720760
        0x00001ab8:    0b38000a    ..8.    DCD    188219402
        0x00001abc:    001038f0    .8..    DCD    1063152
        0x00001ac0:    38801138    8..8    DCD    947917112
        0x00001ac4:    13380012    ..8.    DCD    322437138
        0x00001ac8:    131232ac    .2..    DCD    319959724
        0x00001acc:    1232        2.      DCW    4658
        0x00001ace:    a3          .       DCB    163
    OV5640_AF_FW
        0x00001acf:    02          .       DCB    2
        0x00001ad0:    0a02f30d    ....    DCD    167965453
        0x00001ad4:    2201c25f    _.."    DCD    570540639
        0x00001ad8:    0f020022    "...    DCD    251789346
        0x00001adc:    03013031    10..    DCD    50409521
        0x00001ae0:    30090302    ...0    DCD    805896962
        0x00001ae4:    03020302    ....    DCD    50463490
        0x00001ae8:    a5519009    ..Q.    DCD    2773585929
        0x00001aec:    f6bb78e0    .x..    DCD    4139481312
        0x00001af0:    f608e0a3    ....    DCD    4127776931
        0x00001af4:    f608e0a3    ....    DCD    4127776931
        0x00001af8:    45701fe5    ..pE    DCD    1164976101
        0x00001afc:    d2201e75    u. .    DCD    3525320309
        0x00001b00:    0c0c1234    4...    DCD    202117684
        0x00001b04:    0b129c78    x...    DCD    185769080
        0x00001b08:    a6a878d2    .x..    DCD    2796058834
        0x00001b0c:    15a60814    ....    DCD    363202580
        0x00001b10:    09a6b378    x...    DCD    161919864
        0x00001b14:    78017618    .v.x    DCD    2013361688
        0x00001b18:    080aa64c    L...    DCD    134915660
        0x00001b1c:    6c780ba6    ..xl    DCD    1819806630
        0x00001b20:    a60814a6    ....    DCD    2785547430
        0x00001b24:    e6b37815    .x..    DCD    3870521365
        0x00001b28:    75f68c78    x..u    DCD    1979092088
        0x00001b2c:    bb78011f    ..x.    DCD    3145203999
        0x00001b30:    f6b878e6    .x..    DCD    4139284710
        0x00001b34:    78e6bc78    x..x    DCD    2028387448
        0x00001b38:    bd78f6b9    ..x.    DCD    3178821305
        0x00001b3c:    f6ba78e6    .x..    DCD    4139415782
        0x00001b40:    e7b87922    "y..    DCD    3887626530
        0x00001b44:    96bb78d3    .x..    DCD    2528868563
        0x00001b48:    96e70540    @...    DCD    2531722560
        0x00001b4c:    c30880ff    ....    DCD    3272114431
        0x00001b50:    78e7bb79    y..x    DCD    2028452729
        0x00001b54:    78ff96b8    ...x    DCD    2030016184
        0x00001b58:    080076a6    .v..    DCD    134248102
        0x00001b5c:    b97907a6    ..y.    DCD    3111716774
        0x00001b60:    bc78d3e7    ..x.    DCD    3162035175
        0x00001b64:    e7054096    .@..    DCD    3875881110
        0x00001b68:    0880ff96    ....    DCD    142671766
        0x00001b6c:    e7bc79c3    .y..    DCD    3887888835
        0x00001b70:    ff96b978    x...    DCD    4288067960
        0x00001b74:    79130c12    ...y    DCD    2031291410
        0x00001b78:    78d3e7ba    ...x    DCD    2027153338
        0x00001b7c:    054096bd    ..@.    DCD    88118973
        0x00001b80:    80ff96e7    ....    DCD    2164233959
        0x00001b84:    bd79c308    ..y.    DCD    3178873608
        0x00001b88:    96ba78e7    .x..    DCD    2528803047
        0x00001b8c:    130c12ff    ....    DCD    319558399
        0x00001b90:    25e6b278    x..%    DCD    635875960
        0x00001b94:    f84c24e0    .$L.    DCD    4165739744
        0x00001b98:    a6080aa6    ....    DCD    2785544870
        0x00001b9c:    e6b2780b    .x..    DCD    3870455819
        0x00001ba0:    6c24e025    %.$l    DCD    1814356005
        0x00001ba4:    0814a6f8    ....    DCD    135571192
        0x00001ba8:    b27815a6    ..x.    DCD    2994214310
        0x00001bac:    f88c24e6    .$..    DCD    4169934054
        0x00001bb0:    b27809a6    ..x.    DCD    2994211238
        0x00001bb4:    ff0124e6    .$..    DCD    4278265062
        0x00001bb8:    d3fe33e4    .3..    DCD    3556652004
        0x00001bbc:    ee0f94ef    ....    DCD    3993998575
        0x00001bc0:    80948064    d...    DCD    2157215844
        0x00001bc4:    007f0440    @...    DCD    8324160
        0x00001bc8:    b2780580    ..x.    DCD    2994210176
        0x00001bcc:    78ff04e6    ...x    DCD    2029978854
        0x00001bd0:    e507a6b2    ....    DCD    3842483890
        0x00001bd4:    0a01b41f    ....    DCD    167883807
        0x00001bd8:    020360e6    .`..    DCD    33775846
        0x00001bdc:    1f750903    ..u.    DCD    527763715
        0x00001be0:    0c122202    ."..    DCD    202514946
        0x00001be4:    129e780c    .x..    DCD    312375308
        0x00001be8:    0c12d20b    ....    DCD    202560011
        0x00001bec:    12a0780c    .x..    DCD    312506380
        0x00001bf0:    aa78ff0b    ..x.    DCD    2860056331
        0x00001bf4:    ffff0b12    ....    DCD    4294904594
        0x00001bf8:    06a6ac78    x...    DCD    111586424
        0x00001bfc:    7807a608    ...x    DCD    2013767176
        0x00001c00:    b478e68c    ..x.    DCD    3027822220
        0x00001c04:    e68c78f6    .x..    DCD    3867965686
        0x00001c08:    7ff6b578    x...    DCD    2146874744
        0x00001c0c:    e025ef01    ..%.    DCD    3760582401
        0x00001c10:    9f784d24    $Mx.    DCD    2675461412
        0x00001c14:    50c90b12    ...P    DCD    1355352850
        0x00001c18:    ab0b120a    ....    DCD    2869629450
        0x00001c1c:    04a69e78    x...    DCD    78028408
        0x00001c20:    ef05a608    ....    DCD    4010124808
        0x00001c24:    6d24e025    %.$m    DCD    1831133221
        0x00001c28:    0b12ab78    x...    DCD    185772920
        0x00001c2c:    ef0f50c9    .P..    DCD    4010758345
        0x00001c30:    6c24e025    %.$l    DCD    1814356005
        0x00001c34:    78b00b12    ...x    DCD    2024803090
        0x00001c38:    0804a6aa    ....    DCD    134522538
        0x00001c3c:    8c7405a6    ..t.    DCD    2356413862
        0x00001c40:    b478f92f    /.x.    DCD    3027826991
        0x00001c44:    5097c3e6    ...P    DCD    1352123366
        0x00001c48:    2f8c7408    .t./    DCD    797733896
        0x00001c4c:    b478e6f8    ..x.    DCD    3027822328
        0x00001c50:    e025eff6    ..%.    DCD    3760582646
        0x00001c54:    d3f94d24    $M..    DCD    3556330788
        0x00001c58:    0b12a178    x...    DCD    185770360
        0x00001c5c:    120a40cb    .@..    DCD    302661835
        0x00001c60:    a078ab0b    ..x.    DCD    2692262667
        0x00001c64:    a60804a6    ....    DCD    2785543334
        0x00001c68:    e025ef05    ..%.    DCD    3760582405
        0x00001c6c:    d3f96d24    $m..    DCD    3556338980
        0x00001c70:    0b12ad78    x...    DCD    185773432
        0x00001c74:    ef0f40cb    .@..    DCD    4010754251
        0x00001c78:    6c24e025    %.$l    DCD    1814356005
        0x00001c7c:    78b00b12    ...x    DCD    2024803090
        0x00001c80:    0804a6ac    ....    DCD    134522540
        0x00001c84:    8c7405a6    ..t.    DCD    2356413862
        0x00001c88:    b578f92f    /.x.    DCD    3044604207
        0x00001c8c:    4097d3e6    ...@    DCD    1083692006
        0x00001c90:    2f8c7408    .t./    DCD    797733896
        0x00001c94:    b578e6f8    ..x.    DCD    3044599544
        0x00001c98:    64ef0ff6    ...d    DCD    1693388790
        0x00001c9c:    02036010    .`..    DCD    33775632
        0x00001ca0:    79c33e01    .>.y    DCD    2042838529
        0x00001ca4:    12a1789f    .x..    DCD    312572063
        0x00001ca8:    a278f70b    ..x.    DCD    2725836555
        0x00001cac:    07a608f6    ....    DCD    128321782
        0x00001cb0:    78ab79c3    .y.x    DCD    2024503747
        0x00001cb4:    f70b12ad    ....    DCD    4144698029
        0x00001cb8:    08f6ae78    x...    DCD    150384248
        0x00001cbc:    79c307a6    ...y    DCD    2042824614
        0x00001cc0:    b578e7b4    ..x.    DCD    3044599732
        0x00001cc4:    d3f60896    ....    DCD    3556116630
        0x00001cc8:    78e79f79    y..x    DCD    2028445561
        0x00001ccc:    e719969d    ....    DCD    3877213853
        0x00001cd0:    05409618    ..@.    DCD    88118808
        0x00001cd4:    8008e709    ....    DCD    2148067081
        0x00001cd8:    9d79c306    ..y.    DCD    2642002694
        0x00001cdc:    129f78e7    .x..    DCD    312441063
        0x00001ce0:    78fef80b    ...x    DCD    2029975563
        0x00001ce4:    0806a6a4    ....    DCD    134653604
        0x00001ce8:    79d307a6    ...y    DCD    2043873190
        0x00001cec:    a978e7ab    ..x.    DCD    2843273131
        0x00001cf0:    18e71996    ....    DCD    417798550
        0x00001cf4:    09054096    .@..    DCD    151339158
        0x00001cf8:    068008e7    ....    DCD    109054183
        0x00001cfc:    e7a979c3    .y..    DCD    3886643651
        0x00001d00:    0b12ab78    x...    DCD    185772920
        0x00001d04:    b078fef8    ..x.    DCD    2960719608
        0x00001d08:    a60806a6    ....    DCD    2785543846
        0x00001d0c:    e7b47907    .y..    DCD    3887364359
        0x00001d10:    96b378d3    .x..    DCD    2528344275
        0x00001d14:    96e70540    @...    DCD    2531722560
        0x00001d18:    c30880ff    ....    DCD    3272114431
        0x00001d1c:    78e7b379    y..x    DCD    2028450681
        0x00001d20:    78ff96b4    ...x    DCD    2030016180
        0x00001d24:    e507a6b7    ....    DCD    3842483895
        0x00001d28:    6002641f    .d.`    DCD    1610769439
        0x00001d2c:    ef020203    ....    DCD    4009886211
        0x00001d30:    74243090    .0$t    DCD    1948528784
        0x00001d34:    0e90f00f    ....    DCD    244379663
        0x00001d38:    ff93e48a    ....    DCD    4287882378
        0x00001d3c:    9fc3e618    ....    DCD    2680415768
        0x00001d40:    03020340    @...    DCD    50463552
        0x00001d44:    24309009    ..0$    DCD    607162377
        0x00001d48:    78f00e74    t..x    DCD    2028998260
        0x00001d4c:    d90b12a2    ....    DCD    3641381538
        0x00001d50:    90a20b12    ....    DCD    2426538770
        0x00001d54:    0b12870e    ....    DCD    185763598
        0x00001d58:    129e78b7    .x..    DCD    312375479
        0x00001d5c:    047be80b    ..{.    DCD    75229195
        0x00001d60:    c3900b12    ....    DCD    3280997138
        0x00001d64:    500e0712    ...P    DCD    1343096594
        0x00001d68:    8b0e906f    o...    DCD    2332987503
        0x00001d6c:    78ff93e4    ...x    DCD    2030015460
        0x00001d70:    409fe6b7    ...@    DCD    1084221111
        0x00001d74:    24309007    ..0$    DCD    607162375
        0x00001d78:    16800a74    t...    DCD    377490036
        0x00001d7c:    e4890e90    ....    DCD    3834187408
        0x00001d80:    78d3ff93    ...x    DCD    2027159443
        0x00001d84:    189fe6a7    ....    DCD    413132455
        0x00001d88:    400094e6    ...@    DCD    1073779942
        0x00001d8c:    24309009    ..0$    DCD    607162377
        0x00001d90:    75f00b74    t..u    DCD    1978665844
        0x00001d94:    ae78051f    ..x.    DCD    2927101215
        0x00001d98:    12d90b12    ....    DCD    316214034
        0x00001d9c:    0e90a20b    ....    DCD    244359691
        0x00001da0:    b70b1288    ....    DCD    3070956168
        0x00001da4:    0b12a878    x...    DCD    185772152
        0x00001da8:    12407be8    .{@.    DCD    306215912
        0x00001dac:    12d3900b    ....    DCD    315854859
        0x00001db0:    24400e07    ..@$    DCD    608177671
        0x00001db4:    74243090    .0$t    DCD    1948528784
        0x00001db8:    1f75f00c    ..u.    DCD    527822860
        0x00001dbc:    30902205    .".0    DCD    814752261
        0x00001dc0:    f0017424    $t..    DCD    4026627108
        0x00001dc4:    05b41fe5    ....    DCD    95690725
        0x00001dc8:    c201d20f    ....    DCD    3254899215
        0x00001dcc:    1ff5e402    ....    DCD    536208386
        0x00001dd0:    34d21ef5    ...4    DCD    886185717
        0x00001dd4:    35d232d2    .2.5    DCD    902968018
        0x00001dd8:    601fe522    "..`    DCD    1612703010
        0x00001ddc:    93030203    ....    DCD    2466447875
        0x00001de0:    34d21ef5    ...4    DCD    886185717
        0x00001de4:    75ff3475    u4.u    DCD    1979659381
        0x00001de8:    36750e35    5.u6    DCD    913641013
        0x00001dec:    01377555    Uu7.    DCD    20411733
        0x00001df0:    e4850d12    ....    DCD    3833924882
        0x00001df4:    e025efff    ..%.    DCD    3760582655
        0x00001df8:    e4f84c24    $L..    DCD    3841477668
        0x00001dfc:    0ff608f6    ....    DCD    267782390
        0x00001e00:    90f234bf    .4..    DCD    2431792319
        0x00001e04:    93e48c0e    ....    DCD    2481228814
        0x00001e08:    c349e5ff    ..I.    DCD    3276400127
        0x00001e0c:    7f04509f    .P..    DCD    2130989215
        0x00001e10:    7f028005    ....    DCD    2130870277
        0x00001e14:    a6bb78fb    .x..    DCD    2797304059
        0x00001e18:    bc0e1207    ....    DCD    3155038727
        0x00001e1c:    037f0440    @...    DCD    58655808
        0x00001e20:    307f0280    ...0    DCD    813630080
        0x00001e24:    07a6ba78    x...    DCD    128367224
        0x00001e28:    08f618e6    ....    DCD    150345958
        0x00001e2c:    f6b778e6    .x..    DCD    4139219174
        0x00001e30:    78e6ba78    x..x    DCD    2028386936
        0x00001e34:    bd78f6b8    ..x.    DCD    3178821304
        0x00001e38:    08e43376    v3..    DCD    149173110
        0x00001e3c:    76b678f6    .x.v    DCD    1991670006
        0x00001e40:    02487501    .uH.    DCD    38302977
        0x00001e44:    08f6b478    x...    DCD    150385784
        0x00001e48:    78ff74f6    .t.x    DCD    2030007542
        0x00001e4c:    f608f6bf    ....    DCD    4127782591
        0x00001e50:    78011f75    u..x    DCD    2013339509
        0x00001e54:    f075e6ba    ..u.    DCD    4034258618
        0x00001e58:    49f5a405    ...I    DCD    1240835077
        0x00001e5c:    c2fd0a12    ....    DCD    3271363090
        0x00001e60:    b6782236    6"x.    DCD    3061326390
        0x00001e64:    0094d3e6    ....    DCD    9753574
        0x00001e68:    22160240    @.."    DCD    571867712
        0x00001e6c:    05b41fe5    ....    DCD    95690725
        0x00001e70:    1ff5e423    #...    DCD    536208419
        0x00001e74:    b47801c2    ..x.    DCD    3027763650
        0x00001e78:    e608fee6    ....    DCD    3859349222
        0x00001e7c:    a64c78ff    .xL.    DCD    2790029567
        0x00001e80:    07a60806    ....    DCD    128321542
        0x00001e84:    33e436a2    .6.3    DCD    870594210
        0x00001e88:    30903cf5    .<.0    DCD    814759157
        0x00001e8c:    1e75f028    (.u.    DCD    511045672
        0x00001e90:    2234d210    ..4"    DCD    573886992
        0x00001e94:    f07549e5    .Iu.    DCD    4034218469
        0x00001e98:    ba788405    ..x.    DCD    3128460293
        0x00001e9c:    850e90f6    ....    DCD    2232324342
        0x00001ea0:    25ff93e4    ...%    DCD    637506532
        0x00001ea4:    f80a24e0    .$..    DCD    4161414368
        0x00001ea8:    e608fce6    ....    DCD    3859348710
        0x00001eac:    e6ba78fd    .x..    DCD    3870980349
        0x00001eb0:    4c24e025    %.$L    DCD    1277485093
        0x00001eb4:    0804a6f8    ....    DCD    134522616
        0x00001eb8:    12ef05a6    ....    DCD    317654438
        0x00001ebc:    78d3c30e    ...x    DCD    2027143950
        0x00001ec0:    18ee96b5    ....    DCD    418289333
        0x00001ec4:    780d4096    .@.x    DCD    2014134422
        0x00001ec8:    b778e6ba    ..x.    DCD    3078153914
        0x00001ecc:    a6b478f6    .x..    DCD    2796845302
        0x00001ed0:    07a60806    ....    DCD    128321542
        0x00001ed4:    e4850e90    ....    DCD    3833925264
        0x00001ed8:    c30e1293    ....    DCD    3272479379
        0x00001edc:    96c078c3    .x..    DCD    2529196227
        0x00001ee0:    509618ee    ...P    DCD    1352014062
        0x00001ee4:    e6ba780d    .x..    DCD    3870980109
        0x00001ee8:    78f6b878    x..x    DCD    2029435000
        0x00001eec:    0806a6bf    ....    DCD    134653631
        0x00001ef0:    b47807a6    ..x.    DCD    3027765158
        0x00001ef4:    e608fee6    ....    DCD    3859349222
        0x00001ef8:    96c078c3    .x..    DCD    2529196227
        0x00001efc:    9618eeff    ....    DCD    2518216447
        0x00001f00:    08f6c178    x...    DCD    150389112
        0x00001f04:    0e9007a6    ....    DCD    244320166
        0x00001f08:    1218e48e    ....    DCD    303621262
        0x00001f0c:    0240a10e    ..@.    DCD    37789966
        0x00001f10:    ba7836d2    .6x.    DCD    3128440530
        0x00001f14:    082608e6    ..&.    DCD    136710374
        0x00001f18:    641fe5f6    ...d    DCD    1679812086
        0x00001f1c:    e64a7001    .pJ.    DCD    3863638017
        0x00001f20:    12be78c3    .x..    DCD    314472643
        0x00001f24:    0540970e    ..@.    DCD    88119054
        0x00001f28:    40920e12    ...@    DCD    1083313682
        0x00001f2c:    ba0e1239    9...    DCD    3121484345
        0x00001f30:    fe7f0440    @...    DCD    4269737024
        0x00001f34:    027f0280    ....    DCD    41878144
        0x00001f38:    07a6bb78    x...    DCD    128367480
        0x00001f3c:    24e6b778    x..$    DCD    619100024
        0x00001f40:    f6bd7803    .x..    DCD    4139612163
        0x00001f44:    24e6b778    x..$    DCD    619100024
        0x00001f48:    f6be78fd    .x..    DCD    4139677949
        0x00001f4c:    40ba0e12    ...@    DCD    1085935122
        0x00001f50:    e6be7806    .x..    DCD    3871242246
        0x00001f54:    780480ff    ...x    DCD    2013561087
        0x00001f58:    78ffe6bd    ...x    DCD    2030036669
        0x00001f5c:    7507a6bc    ...u    DCD    1963435708
        0x00001f60:    b678021f    ..x.    DCD    3061318175
        0x00001f64:    05020176    v...    DCD    84017526
        0x00001f68:    641fe559    Y..d    DCD    1679811929
        0x00001f6c:    02036002    .`..    DCD    33775618
        0x00001f70:    bc783905    .9x.    DCD    3161995525
        0x00001f74:    78c3ffe6    ...x    DCD    2026110950
        0x00001f78:    980e12be    ....    DCD    2551059134
        0x00001f7c:    0e120840    @...    DCD    236062784
        0x00001f80:    02035092    .P..    DCD    33771666
        0x00001f84:    0e123705    .7..    DCD    236074757
        0x00001f88:    7f0440ba    .@..    DCD    2130985146
        0x00001f8c:    7f0280ff    ....    DCD    2130870527
        0x00001f90:    a6bb7801    .x..    DCD    2797303809
        0x00001f94:    e6b77807    .x..    DCD    3870783495
        0x00001f98:    f6bd7804    .x..    DCD    4139612164
        0x00001f9c:    14e6b778    x...    DCD    350664568
        0x00001fa0:    18f6be78    x...    DCD    418823800
        0x00001fa4:    40bc0e12    ...@    DCD    1086066194
        0x00001fa8:    80ffe604    ....    DCD    2164254212
        0x00001fac:    78007f02    ...x    DCD    2013298434
        0x00001fb0:    d307a6bd    ....    DCD    3540494013
        0x00001fb4:    8064e608    ..d.    DCD    2154096136
        0x00001fb8:    04408094    ..@.    DCD    71336084
        0x00001fbc:    0280ffe6    ....    DCD    42008550
        0x00001fc0:    be78007f    ..x.    DCD    3195535487
        0x00001fc4:    18c307a6    ....    DCD    415434662
        0x00001fc8:    948064e6    .d..    DCD    2491442406
        0x00001fcc:    e60450b3    .P..    DCD    3859042483
        0x00001fd0:    7f0280ff    ....    DCD    2130870527
        0x00001fd4:    a6bd7833    3x..    DCD    2797434931
        0x00001fd8:    e608c307    ....    DCD    3859333895
        0x00001fdc:    b3948064    d...    DCD    3012853860
        0x00001fe0:    ffe60450    P...    DCD    4293264464
        0x00001fe4:    337f0280    ...3    DCD    863961728
        0x00001fe8:    07a6be78    x...    DCD    128368248
        0x00001fec:    40ba0e12    ...@    DCD    1085935122
        0x00001ff0:    e6be7806    .x..    DCD    3871242246
        0x00001ff4:    780480ff    ...x    DCD    2013561087
        0x00001ff8:    78ffe6bd    ...x    DCD    2030036669
        0x00001ffc:    7507a6bc    ...u    DCD    1963435708
        0x00002000:    b678031f    ..x.    DCD    3061318431
        0x00002004:    20800176    v..     DCD    545259894
        0x00002008:    03641fe5    ..d.    DCD    56893413
        0x0000200c:    bc782670    p&x.    DCD    3161990768
        0x00002010:    78c3ffe6    ...x    DCD    2026110950
        0x00002014:    980e12be    ....    DCD    2551059134
        0x00002018:    0e120540    @...    DCD    236062016
        0x0000201c:    78094092    .@.x    DCD    2013872274
        0x00002020:    bc78e6b7    ..x.    DCD    3162039991
        0x00002024:    041f75f6    .u..    DCD    69170678
        0x00002028:    75e6bc78    x..u    DCD    1978055800
        0x0000202c:    f5a405f0    ....    DCD    4121167344
        0x00002030:    fd0a0249    I...    DCD    4245291593
        0x00002034:    04b41fe5    ....    DCD    78913509
        0x00002038:    8d0e901f    ....    DCD    2366541855
        0x0000203c:    12c178e4    .x..    DCD    314669284
        0x00002040:    0240a10e    ..@.    DCD    37789966
        0x00002044:    1f7536d2    .6u.    DCD    527775442
        0x00002048:    ff347505    .u4.    DCD    4281627909
        0x0000204c:    750e3575    u5.u    DCD    1963865461
        0x00002050:    37755936    6Yu7    DCD    930437430
        0x00002054:    850d1201    ....    DCD    2232226305
        0x00002058:    f08def22    "...    DCD    4035833634
        0x0000205c:    cff0a8a4    ....    DCD    3488655524
        0x00002060:    28a4f08c    ...(    DCD    681898124
        0x00002064:    a4f08dce    ....    DCD    2767228366
        0x00002068:    bc22fe2e    ..".    DCD    3156409902
        0x0000206c:    00be0b00    ....    DCD    12454656
        0x00002070:    f08def29    )...    DCD    4035833641
        0x00002074:    f0adff84    ....    DCD    4037934980
        0x00002078:    f8cce422    "...    DCD    4174177314
        0x0000207c:    ef08f075    u...    DCD    4010340469
        0x00002080:    33eeff2f    /..3    DCD    871300911
        0x00002084:    fc33ecfe    ..3.    DCD    4231261438
        0x00002088:    98ec9dee    ....    DCD    2565643758
        0x0000208c:    eefc0540    @...    DCD    4009493824
        0x00002090:    d50ffe9d    ....    DCD    3574595229
        0x00002094:    cee4e9f0    ....    DCD    3471108592
        0x00002098:    f8ed22fd    ."..    DCD    4176290557
        0x0000209c:    84eef0f5    ....    DCD    2230251765
        0x000020a0:    fe1cd220     ...    DCD    4263301664
        0x000020a4:    f075f0ad    ..u.    DCD    4034261165
        0x000020a8:    ff2fef08    ../.    DCD    4281331464
        0x000020ac:    40fd33ed    .3.@    DCD    1090335725
        0x000020b0:    06509807    ..P.    DCD    105945095
        0x000020b4:    22f2f0d5    ..."    DCD    586346709
        0x000020b8:    0ffd98c3    ....    DCD    268277955
        0x000020bc:    22eaf0d5    ..."    DCD    585822421
        0x000020c0:    a4f08fe8    ....    DCD    2767228904
        0x000020c4:    a4f08bcc    ....    DCD    2767227852
        0x000020c8:    8ee9fc2c    ,...    DCD    2397699116
        0x000020cc:    fc2ca4f0    ..,.    DCD    4230784240
        0x000020d0:    a4edf08a    ....    DCD    2767057034
        0x000020d4:    8eeafc2c    ,...    DCD    2397764652
        0x000020d8:    a8cda4f0    ....    DCD    2832049392
        0x000020dc:    a4f08bf0    ....    DCD    2767227888
        0x000020e0:    2538cc2d    -.8%    DCD    624479277
        0x000020e4:    8fe9fdf0    ....    DCD    2414476784
        0x000020e8:    cd2ca4f0    ..,.    DCD    3442255088
        0x000020ec:    ebfcf035    5...    DCD    3959222325
        0x000020f0:    fea4f08e    ....    DCD    4272222350
        0x000020f4:    8febf0a9    ....    DCD    2414604457
        0x000020f8:    c5cfa4f0    ....    DCD    3318719728
        0x000020fc:    39cd2ef0    ...9    DCD    969748208
        0x00002100:    fc3ce4fe    ..<.    DCD    4231849214
        0x00002104:    ce2da4ea    ..-.    DCD    3459097834
        0x00002108:    e4fdf035    5...    DCD    3841847349
        0x0000210c:    7522fc3c    <."u    DCD    1965227068
        0x00002110:    827508f0    ..u.    DCD    2188708080
        0x00002114:    ff2fef00    ../.    DCD    4281331456
        0x00002118:    cdfe33ee    .3..    DCD    3455988718
        0x0000211c:    33cccd33    3..3    DCD    869059891
        0x00002120:    3382c5cc    ...3    DCD    864208332
        0x00002124:    ed9b82c5    ....    DCD    3986391749
        0x00002128:    e599ec9a    ....    DCD    3852070042
        0x0000212c:    0c409882    ..@.    DCD    205559938
        0x00002130:    9bee82f5    ....    DCD    2616099573
        0x00002134:    fd9aedfe    ....    DCD    4254789118
        0x00002138:    0ffc99ec    ....    DCD    268212716
        0x0000213c:    e4d6f0d5    ....    DCD    3839291605
        0x00002140:    cde4fbce    ....    DCD    3454335950
        0x00002144:    f9cce4fa    ....    DCD    4190954746
        0x00002148:    b82282a8    ..".    DCD    3089269416
        0x0000214c:    00b9c100    ....    DCD    12173568
        0x00002150:    2d00ba59    Y..-    DCD    755022425
        0x00002154:    84f08bec    ....    DCD    2230356972
        0x00002158:    fccdcecf    ....    DCD    4241346255
        0x0000215c:    f9cbf0e5    ....    DCD    4190892261
        0x00002160:    2fef1878    x../    DCD    804198520
        0x00002164:    fe33eeff    ..3.    DCD    4264816383
        0x00002168:    ecfd33ed    .3..    DCD    3976016877
        0x0000216c:    33ebfc33    3..3    DCD    871103539
        0x00002170:    03d710fb    ....    DCD    64426235
        0x00002174:    eb044099    .@..    DCD    3942924441
        0x00002178:    d80ffb99    ....    DCD    3624926105
        0x0000217c:    faf9e4e5    ....    DCD    4210681061
        0x00002180:    ef187822    "x..    DCD    4011358242
        0x00002184:    33eeff2f    /..3    DCD    871300911
        0x00002188:    fd33edfe    ..3.    DCD    4248038910
        0x0000218c:    c9fc33ec    .3..    DCD    3388748780
        0x00002190:    d710c933    3...    DCD    3608201523
        0x00002194:    9ae99b05    ....    DCD    2599000837
        0x00002198:    9bec0740    @...    DCD    2615936832
        0x0000219c:    f99ae9fc    ....    DCD    4187679228
        0x000021a0:    e4e0d80f    ....    DCD    3839940623
        0x000021a4:    cce4fac9    ....    DCD    3437558473
        0x000021a8:    f07522fb    ."u.    DCD    4034208507
        0x000021ac:    ff2fef10    ../.    DCD    4281331472
        0x000021b0:    edfe33ee    .3..    DCD    3992859630
        0x000021b4:    33ccfd33    3..3    DCD    869072179
        0x000021b8:    c833c8cc    ..3.    DCD    3358836940
        0x000021bc:    9b07d710    ....    DCD    2600982288
        0x000021c0:    99e89aec    ....    DCD    2582158060
        0x000021c4:    9bed0a40    @...    DCD    2616003136
        0x000021c8:    fc9aecfd    ....    DCD    4238011645
        0x000021cc:    0ff899e8    ....    DCD    267950568
        0x000021d0:    e4daf0d5    ....    DCD    3839553749
        0x000021d4:    cce4fbcd    ....    DCD    3437558733
        0x000021d8:    f9c8e4fa    ....    DCD    4190692602
        0x000021dc:    f59feb22    "...    DCD    4120898338
        0x000021e0:    429eeaf0    ...B    DCD    1117711088
        0x000021e4:    429de9f0    ...B    DCD    1117645296
        0x000021e8:    459ce8f0    ...E    DCD    1167911152
        0x000021ec:    60e822f0    .".`    DCD    1625826032
        0x000021f0:    33c3ef0f    ...3    DCD    868478735
        0x000021f4:    fe33eeff    ..3.    DCD    4264816383
        0x000021f8:    ecfd33ed    .3..    DCD    3976016877
        0x000021fc:    f1d8fc33    3...    DCD    4057529395
        0x00002200:    fc93e422    "...    DCD    4237550626
        0x00002204:    fd930174    t...    DCD    4254269812
        0x00002208:    fe930274    t...    DCD    4271047284
        0x0000220c:    ff930374    t...    DCD    4287824756
        0x00002210:    08fbe622    "...    DCD    150726178
        0x00002214:    e608f9e6    ....    DCD    3859347942
        0x00002218:    cbe608fa    ....    DCD    3420850426
        0x0000221c:    f6ec22f8    ."..    DCD    4142670584
        0x00002220:    08f6ed08    ....    DCD    150400264
        0x00002224:    ef08f6ee    ....    DCD    4010342126
        0x00002228:    25a422f6    .".%    DCD    631513846
        0x0000222c:    e582f582    ....    DCD    3850564994
        0x00002230:    f58335f0    .5..    DCD    4119016944
        0x00002234:    83d02283    ."..    DCD    2211455619
        0x00002238:    e4f882d0    ....    DCD    3841491664
        0x0000223c:    74127093    .p.t    DCD    1947365523
        0x00002240:    0d709301    ..p.    DCD    225481473
        0x00002244:    f893a3a3    ....    DCD    4170425251
        0x00002248:    f5930174    t...    DCD    4120052084
        0x0000224c:    e4838882    ....    DCD    3833825410
        0x00002250:    93027473    st..    DCD    2466411635
        0x00002254:    a3ef6068    h`..    DCD    2750373992
        0x00002258:    df80a3a3    ....    DCD    3749749667
        0x0000225c:    78043890    .8.x    DCD    2013542544
        0x00002260:    7f0c1250    P...    DCD    2131497552
        0x00002264:    e0003890    .8..    DCD    3758110864
        0x00002268:    fde0a3fe    ....    DCD    4259357694
        0x0000226c:    12c3ffed    ....    DCD    314834925
        0x00002270:    3890380c    .8.8    DCD    948975628
        0x00002274:    2c0c1210    ...,    DCD    738988560
        0x00002278:    78063890    .8.x    DCD    2013673616
        0x0000227c:    7f0c1252    R...    DCD    2131497554
        0x00002280:    e0023890    .8..    DCD    3758241936
        0x00002284:    fde0a3fe    ....    DCD    4259357694
        0x00002288:    12c3ffed    ....    DCD    314834925
        0x0000228c:    3890380c    .8.8    DCD    948975628
        0x00002290:    2c0c1212    ...,    DCD    738988562
        0x00002294:    31b4e0a3    ...1    DCD    833937571
        0x00002298:    79507807    .xPy    DCD    2035316743
        0x0000229c:    950c1250    P...    DCD    2500596304
        0x000022a0:    e0143890    .8..    DCD    3759421584
        0x000022a4:    781571b4    .q.x    DCD    2014671284
        0x000022a8:    08fee650    P...    DCD    150922832
        0x000022ac:    ce0278e6    .x..    DCD    3456268518
        0x000022b0:    13ce13c3    ....    DCD    332272579
        0x000022b4:    5179f9d8    ..yQ    DCD    1366948312
        0x000022b8:    f719eef7    ....    DCD    4145671927
        0x000022bc:    e0153890    .8..    DCD    3759487120
        0x000022c0:    780731b4    .1.x    DCD    2013737396
        0x000022c4:    12527952    RyR.    DCD    307394898
        0x000022c8:    3890950c    ...8    DCD    948999436
        0x000022cc:    71b4e015    ...q    DCD    1907679253
        0x000022d0:    e6527815    .xR.    DCD    3864164373
        0x000022d4:    78e608fe    ...x    DCD    2028341502
        0x000022d8:    13c3ce02    ....    DCD    331599362
        0x000022dc:    f9d813ce    ....    DCD    4191687630
        0x000022e0:    eef75379    yS..    DCD    4009186169
        0x000022e4:    5079f719    ..yP    DCD    1350170393
        0x000022e8:    09670c12    ..g.    DCD    157748242
        0x000022ec:    af670c12    ..g.    DCD    2942766098
        0x000022f0:    1d0c1245    E...    DCD    487330373
        0x000022f4:    0512507d    }P..    DCD    85086333
        0x000022f8:    a658789c    .xX.    DCD    2790815900
        0x000022fc:    07a60806    ....    DCD    128321542
        0x00002300:    0c1243af    .C..    DCD    202523567
        0x00002304:    12507d1d    .}P.    DCD    307264797
        0x00002308:    54789c05    ..xT    DCD    1417190405
        0x0000230c:    a60806a6    ....    DCD    2785543846
        0x00002310:    7846af07    ..Fx    DCD    2017898247
        0x00002314:    1f0c1252    R...    DCD    520884818
        0x00002318:    05123c7d    }<..    DCD    85081213
        0x0000231c:    a65a789c    .xZ.    DCD    2790946972
        0x00002320:    07a60806    ....    DCD    128321542
        0x00002324:    007e44af    .D~.    DCD    8275119
        0x00002328:    0c125278    xR..    DCD    202527352
        0x0000232c:    123c7d21    !}<.    DCD    305954081
        0x00002330:    56789c05    ..xV    DCD    1450744837
        0x00002334:    a60806a6    ....    DCD    2785543846
        0x00002338:    5978c307    ..xY    DCD    1501086471
        0x0000233c:    180894e6    ....    DCD    403215590
        0x00002340:    500094e6    ...P    DCD    1342215398
        0x00002344:    08007605    .v..    DCD    134247941
        0x00002348:    78c30876    v..x    DCD    2026047606
        0x0000234c:    0894e65b    [...    DCD    143976027
        0x00002350:    0094e618    ....    DCD    9758232
        0x00002354:    00760550    P.v.    DCD    7734608
        0x00002358:    78087608    .v.x    DCD    2013820424
        0x0000235c:    540c1258    X..T    DCD    1410077272
        0x00002360:    5578d3ff    ..xU    DCD    1433981951
        0x00002364:    e6189fe6    ....    DCD    3860373478
        0x00002368:    780e409e    .@.x    DCD    2014199966
        0x0000236c:    fe13e658    X...    DCD    4262717016
        0x00002370:    5578e608    ..xU    DCD    1433986568
        0x00002374:    808a0c12    ....    DCD    2156530706
        0x00002378:    7f007e04    .~..    DCD    2130738692
        0x0000237c:    125c7800    .x\.    DCD    308049920
        0x00002380:    d3ff4c0c    .L..    DCD    3556723724
        0x00002384:    9fe65778    xW..    DCD    2682673016
        0x00002388:    409ee618    ...@    DCD    1084155416
        0x0000238c:    e65a780e    .xZ.    DCD    3864688654
        0x00002390:    e608fe13    ....    DCD    3859349011
        0x00002394:    0c125778    xW..    DCD    202528632
        0x00002398:    7e04808a    ...~    DCD    2114224266
        0x0000239c:    e4007f00    ....    DCD    3825237760
        0x000023a0:    6078fdfc    ..x`    DCD    1618542076
        0x000023a4:    784f0712    ..Ox    DCD    2018445074
        0x000023a8:    540c1258    X..T    DCD    1410077272
        0x000023ac:    ff265578    xU&.    DCD    4280702328
        0x000023b0:    fe3618ee    ..6.    DCD    4264958190
        0x000023b4:    0c126478    xd..    DCD    202531960
        0x000023b8:    2657784c    LxW&    DCD    643266636
        0x000023bc:    3618eeff    ...6    DCD    907603711
        0x000023c0:    fdfce4fe    ....    DCD    4261209342
        0x000023c4:    07126878    xh..    DCD    118646904
        0x000023c8:    5c0c124f    O..\    DCD    1544294991
        0x000023cc:    07126478    xd..    DCD    118645880
        0x000023d0:    0712d342    B...    DCD    118674242
        0x000023d4:    1208400e    .@..    DCD    302530574
        0x000023d8:    64785c0c    .\xd    DCD    1685609484
        0x000023dc:    784f0712    ..Ox    DCD    2018445074
        0x000023e0:    5e0c1252    R..^    DCD    1577849426
        0x000023e4:    07126878    xh..    DCD    118646904
        0x000023e8:    0712d342    B...    DCD    118674242
        0x000023ec:    780a400e    .@.x    DCD    2013937678
        0x000023f0:    5e0c1252    R..^    DCD    1577849426
        0x000023f4:    07126878    xh..    DCD    118646904
        0x000023f8:    78fde44f    O..x    DCD    2029904975
        0x000023fc:    770c125f    _..w    DCD    1997279839
        0x00002400:    0c120124    $...    DCD    202506532
        0x00002404:    12637840    @xc.    DCD    308508736
        0x00002408:    0224770c    .w$.    DCD    35944204
        0x0000240c:    78400c12    ..@x    DCD    2017463314
        0x00002410:    770c1267    g..w    DCD    1997279847
        0x00002414:    0c120324    $...    DCD    202507044
        0x00002418:    126b7840    @xk.    DCD    309033024
        0x0000241c:    0424770c    .w$.    DCD    69498636
        0x00002420:    0d400c12    ..@.    DCD    222301202
        0x00002424:    c2d405bd    ....    DCD    3268675005
        0x00002428:    2206c20e    ..."    DCD    570868238
        0x0000242c:    90410885    ..A.    DCD    2420181125
        0x00002430:    f5e02430    0$..    DCD    4125107248
        0x00002434:    f5e0a33d    =...    DCD    4125139773
        0x00002438:    f5e0a33e    >...    DCD    4125139774
        0x0000243c:    f5e0a33f    ?...    DCD    4125139775
        0x00002440:    f5e0a340    @...    DCD    4125139776
        0x00002444:    e533d23c    <.3.    DCD    3845378620
        0x00002448:    67071241    A..g    DCD    1728516673
        0x0000244c:    0903b409    ....    DCD    151237641
        0x00002450:    be0904b8    ....    DCD    3188262072
        0x00002454:    06c10905    ....    DCD    113314053
        0x00002458:    0907c409    ....    DCD    151503881
        0x0000245c:    de0908cd    ....    DCD    3725134029
        0x00002460:    80e00912    ....    DCD    2162166034
        0x00002464:    0a81e509    ....    DCD    176284937
        0x00002468:    320a8f43    C..2    DCD    839552835
        0x0000246c:    91430a90    ..C.    DCD    2437089936
        0x00002470:    0a92430a    .C..    DCD    177357578
        0x00002474:    430a9343    C..C    DCD    1124766531
        0x00002478:    98430a94    ..C.    DCD    2554530452
        0x0000247c:    009f400a    .@..    DCD    10436618
        0x00002480:    125e0a00    ..^.    DCD    308152832
        0x00002484:    1222ce0e    ..".    DCD    304270862
        0x00002488:    03d2ce0e    ....    DCD    64146958
        0x0000248c:    2203d222    ".."    DCD    570675746
        0x00002490:    a22203c2    ..".    DCD    2720138178
        0x00002494:    f533e436    6.3.    DCD    4113818678
        0x00002498:    430a023c    <..C    DCD    1124729404
        0x0000249c:    02c201c2    ....    DCD    46268866
        0x000024a0:    0d1203c2    ....    DCD    219284418
        0x000024a4:    701e7514    .u.p    DCD    1881044244
        0x000024a8:    0a0234d2    .4..    DCD    167916754
        0x000024ac:    124d8043    C.M.    DCD    307068995
        0x000024b0:    5e80170f    ...^    DCD    1585452815
        0x000024b4:    85433d85    .=C.    DCD    2235776389
        0x000024b8:    45e5443e    >D.E    DCD    1172653118
        0x000024bc:    e5ff13c3    ....    DCD    3858699203
        0x000024c0:    509fc343    C..P    DCD    1352647491
        0x000024c4:    e5438f02    ..C.    DCD    3846409986
        0x000024c8:    ff13c346    F...    DCD    4279485254
        0x000024cc:    9fc344e5    .D..    DCD    2680374501
        0x000024d0:    448f0250    P..D    DCD    1150222928
        0x000024d4:    13c345e5    .E..    DCD    331564517
        0x000024d8:    43e5fdff    ...C    DCD    1139146239
        0x000024dc:    127f0e90    ....    DCD    310316688
        0x000024e0:    0440ea0e    ..@.    DCD    71363086
        0x000024e4:    43f59fee    ...C    DCD    1140170734
        0x000024e8:    13c346e5    .F..    DCD    331564773
        0x000024ec:    44e5fdff    ...D    DCD    1155923455
        0x000024f0:    12800e90    ....    DCD    310382224
        0x000024f4:    0440ea0e    ..@.    DCD    71363086
        0x000024f8:    44f59fee    ...D    DCD    1156947950
        0x000024fc:    808d0712    ....    DCD    2156726034
        0x00002500:    46408511    ..@F    DCD    1178633489
        0x00002504:    85453f85    .?E.    DCD    2235907973
        0x00002508:    3d85443e    >D.=    DCD    1032143934
        0x0000250c:    02038043    C...    DCD    33783875
        0x00002510:    30908d07    ...0    DCD    814779655
        0x00002514:    f03de524    $.=.    DCD    4030588196
        0x00002518:    f03ee5a3    ..>.    DCD    4030653859
        0x0000251c:    f03fe5a3    ..?.    DCD    4030719395
        0x00002520:    f040e5a3    ..@.    DCD    4030784931
        0x00002524:    f03ce5a3    ..<.    DCD    4030522787
        0x00002528:    e4233090    .0#.    DCD    3827511440
        0x0000252c:    e0c022f0    ."..    DCD    3770688240
        0x00002530:    82c083c0    ....    DCD    2193654720
        0x00002534:    3f90d0c0    ...?    DCD    1066455232
        0x00002538:    32f5e00c    ...2    DCD    854974476
        0x0000253c:    e33032e5    .20.    DCD    3811586789
        0x00002540:    3e35304c    L05>    DCD    1043673164
        0x00002544:    e0196090    .`..    DCD    3759759504
        0x00002548:    e0a30af5    ....    DCD    3768781557
        0x0000254c:    60900bf5    ...`    DCD    1620052981
        0x00002550:    14f5e01d    ....    DCD    351658013
        0x00002554:    15f5e0a3    ....    DCD    368435363
        0x00002558:    30060130    0..0    DCD    805699888
        0x0000255c:    80d30332    2...    DCD    2161312562
        0x00002560:    0992c301    ....    DCD    160613121
        0x00002564:    30060230    0..0    DCD    805700144
        0x00002568:    80d30332    2...    DCD    2161312562
        0x0000256c:    0a92c301    ....    DCD    177390337
        0x00002570:    300c3230    02.0    DCD    806105648
        0x00002574:    02200903    .. .    DCD    35653891
        0x00002578:    03012006    . ..    DCD    50405382
        0x0000257c:    c30180d3    ....    DCD    3271655635
        0x00002580:    30900b92    ...0    DCD    814746514
        0x00002584:    4044e001    ..D@    DCD    1078255617
        0x00002588:    bf54e0f0    ..T.    DCD    3210010864
        0x0000258c:    3032e5f0    ..20    DCD    808642032
        0x00002590:    333014e1    ..03    DCD    858789089
        0x00002594:    22309011    ..0"    DCD    573607953
        0x00002598:    e408f5e0    ....    DCD    3825792480
        0x0000259c:    030030f0    .0..    DCD    50344176
        0x000025a0:    c30180d3    ....    DCD    3271655635
        0x000025a4:    32e50892    ...2    DCD    853870738
        0x000025a8:    9012e530    0...    DCD    2417157424
        0x000025ac:    f5e0a156    V...    DCD    4125139286
        0x000025b0:    09303009    .00.    DCD    154152969
        0x000025b4:    d3030530    0...    DCD    3540190512
        0x000025b8:    92c30180    ....    DCD    2462253440
        0x000025bc:    0c3f900d    ..?.    DCD    205492237
        0x000025c0:    d0f032e5    .2..    DCD    3505402597
        0x000025c4:    d082d0d0    ....    DCD    3498234064
        0x000025c8:    32e0d083    ...2    DCD    853594243
        0x000025cc:    e47d0e90    ..}.    DCD    3833400976
        0x000025d0:    0174fe93    ..t.    DCD    24444563
        0x000025d4:    90c3ff93    ....    DCD    2428764051
        0x000025d8:    01747b0e    .{t.    DCD    24410894
        0x000025dc:    e4ff9f93    ....    DCD    3841957779
        0x000025e0:    e4fe9e93    ....    DCD    3841891987
        0x000025e4:    3a8e3b8f    .;.:    DCD    982399887
        0x000025e8:    38f539f5    .9.8    DCD    955595253
        0x000025ec:    3aaa3bab    .;.:    DCD    984234923
        0x000025f0:    38a839a9    .9.8    DCD    950548905
        0x000025f4:    fdfc49af    .I..    DCD    4261169583
        0x000025f8:    f10512fe    ....    DCD    4043641598
        0x000025fc:    e4fc0e12    ....    DCD    3841723922
        0x00002600:    f9faff7b    {...    DCD    4193976187
        0x00002604:    7c0612f8    ...|    DCD    2080772856
        0x00002608:    90fc0e12    ....    DCD    2432437778
        0x0000260c:    12e4690e    .i..    DCD    316958990
        0x00002610:    0e12110f    ....    DCD    236065039
        0x00002614:    4885e4fc    ...H    DCD    1216734460
        0x00002618:    f536f537    7.6.    DCD    4114019639
        0x0000261c:    af34f535    5.4.    DCD    2939483445
        0x00002620:    ad36ae37    7.6.    DCD    2906041911
        0x00002624:    a334ac35    5.4.    DCD    2738138165
        0x00002628:    8f110f12    ....    DCD    2400259858
        0x0000262c:    8d368e37    7.6.    DCD    2369162807
        0x00002630:    e5348c35    5.4.    DCD    3845426229
        0x00002634:    f537453b    ;E7.    DCD    4114040123
        0x00002638:    453ae53b    ;.:E    DCD    1161487675
        0x0000263c:    e53af536    6.:.    DCD    3845846326
        0x00002640:    f5354539    9E5.    DCD    4113909049
        0x00002644:    4538e539    9.8E    DCD    1161356601
        0x00002648:    e438f534    4.8.    DCD    3828938036
        0x0000264c:    23f522f5    .".#    DCD    603267829
        0x00002650:    85313b85    .;1.    DCD    2234596229
        0x00002654:    3985303a    :0.9    DCD    965029946
        0x00002658:    2e38852f    /.8.    DCD    775456047
        0x0000265c:    adc50d02    ....    DCD    2915372290
        0x00002660:    fa38ac39    9.8.    DCD    4198018105
        0x00002664:    0512f8f9    ....    DCD    85129465
        0x00002668:    8e3b8ff1    ..;.    DCD    2386268145
        0x0000266c:    8c398d3a    :.9.    DCD    2352581946
        0x00002670:    aa37ab38    8.7.    DCD    2855775032
        0x00002674:    a835a936    6.5.    DCD    2822089014
        0x00002678:    25ef2234    4".%    DCD    636428852
        0x0000267c:    f84c24e0    .$L.    DCD    4165739744
        0x00002680:    e608fce6    ....    DCD    3859348710
        0x00002684:    ff9322fd    ."..    DCD    4287832829
        0x00002688:    fefdfce4    ....    DCD    4278058212
        0x0000268c:    8ff10512    ....    DCD    2414937362
        0x00002690:    8d368e37    7.6.    DCD    2369162807
        0x00002694:    22348c35    5.4"    DCD    573869109
        0x00002698:    97e6c3f9    ....    DCD    2548483065
        0x0000269c:    9719e618    ....    DCD    2535056920
        0x000026a0:    06a6ff22    "...    DCD    111607586
        0x000026a4:    2207a608    ..."    DCD    570926600
        0x000026a8:    e608fee6    ....    DCD    3859349222
        0x000026ac:    378fe4ff    ...7    DCD    932177151
        0x000026b0:    35f5368e    .6.5    DCD    905262734
        0x000026b4:    e62234f5    .4".    DCD    3861001461
        0x000026b8:    ffe608fe    ....    DCD    4293265662
        0x000026bc:    8e3b8fe4    ..;.    DCD    2386268132
        0x000026c0:    f539f53a    :.9.    DCD    4114216250
        0x000026c4:    96e72238    8"..    DCD    2531729976
        0x000026c8:    18e719ff    ....    DCD    417798655
        0x000026cc:    a6ff2296    ."..    DCD    2801738390
        0x000026d0:    07a60806    ....    DCD    128321542
        0x000026d4:    fee66c78    xl..    DCD    4276513912
        0x000026d8:    7822e608    .."x    DCD    2015553032
        0x000026dc:    08fee64c    L...    DCD    150922828
        0x000026e0:    a77822e6    ."x.    DCD    2809668326
        0x000026e4:    18f626ef    .&..    DCD    418785007
        0x000026e8:    22f636e4    .6."    DCD    586561252
        0x000026ec:    007e5078    xP~.    DCD    8278136
        0x000026f0:    e608fce6    ....    DCD    3859348710
        0x000026f4:    8a0512fd    ....    DCD    2315588349
        0x000026f8:    e022007c    |.".    DCD    3760324732
        0x000026fc:    f075e0a3    ..u.    DCD    4034257059
        0x00002700:    aeffa402    ....    DCD    2935989250
        0x00002704:    e608c3f0    ....    DCD    3859334128
        0x00002708:    e618f69f    ....    DCD    3860395679
        0x0000270c:    ff22f69e    ..".    DCD    4280481438
        0x00002710:    6034f0e5    ..4`    DCD    1614082277
        0x00002714:    83f5828f    ....    DCD    2213905039
        0x00002718:    e422f0ec    ..".    DCD    3827495148
        0x0000271c:    0712fdfc    ....    DCD    118685180
        0x00002720:    e65a784f    OxZ.    DCD    3864688719
        0x00002724:    08fe13c3    ....    DCD    150868931
        0x00002728:    782213e6    .."x    DCD    2015499238
        0x0000272c:    08fee650    P...    DCD    150922832
        0x00002730:    fce4ffe6    ....    DCD    4242866150
        0x00002734:    c4e722fd    ."..    DCD    3303482109
        0x00002738:    c8f054f8    .T..    DCD    3371193592
        0x0000273c:    e709f768    h...    DCD    3876190056
        0x00002740:    480f54c4    .T.H    DCD    1208964292
        0x00002744:    fce622f7    ."..    DCD    4242940663
        0x00002748:    04f075ed    .u..    DCD    82867693
        0x0000274c:    fee022a4    ."..    DCD    4276101796
        0x00002750:    eefde0a3    ....    DCD    4009615523
        0x00002754:    f608edf6    ....    DCD    4127780342
        0x00002758:    c3ff1322    "...    DCD    3288273698
        0x0000275c:    18ff9fe6    ....    DCD    419405798
        0x00002760:    22fe9ee6    ..."    DCD    587112166
        0x00002764:    f713c3e6    ....    DCD    4145267686
        0x00002768:    0913e608    ....    DCD    152299016
        0x0000276c:    897522f7    ."u.    DCD    2306155255
        0x00002770:    01a87503    .u..    DCD    27817219
        0x00002774:    7504b875    u..u    DCD    1963243637
        0x00002778:    3575ff34    4.u5    DCD    896925492
        0x0000277c:    1536750e    .u6.    DCD    355890446
        0x00002780:    120d3775    u7..    DCD    302856053
        0x00002784:    0012850d    ....    DCD    1213709
        0x00002788:    170f1209    ....    DCD    386863625
        0x0000278c:    d2060012    ....    DCD    3523608594
        0x00002790:    d233d200    ..3.    DCD    3526611456
        0x00002794:    ff3475af    .u4.    DCD    4281628079
        0x00002798:    750e3575    u5.u    DCD    1963865461
        0x0000279c:    37754936    6Iu7    DCD    930433334
        0x000027a0:    850d1203    ....    DCD    2232226307
        0x000027a4:    c2090830    0...    DCD    3255371824
        0x000027a8:    5d091233    3..]    DCD    1560875571
        0x000027ac:    33d208c2    ...3    DCD    869402818
        0x000027b0:    c2090b30    0...    DCD    3255372592
        0x000027b4:    0e001235    5...    DCD    234885685
        0x000027b8:    35d20bc2    ...5    DCD    902958018
        0x000027bc:    c2090930    0...    DCD    3255372080
        0x000027c0:    0a031235    5...    DCD    167973429
        0x000027c4:    35d209c2    ...5    DCD    902957506
        0x000027c8:    12030e30    0...    DCD    302190128
        0x000027cc:    34308d07    ..04    DCD    875597063
        0x000027d0:    293090d3    ..0)    DCD    691048659
        0x000027d4:    b4f01ee5    ....    DCD    3035635429
        0x000027d8:    30900510    ...0    DCD    814744848
        0x000027dc:    c2f0e423    #...    DCD    3270566947
        0x000027e0:    e4c18034    4...    DCD    3837886516
        0x000027e4:    0e9049f5    .I..    DCD    244337141
        0x000027e8:    e4ff9377    w...    DCD    3841954679
        0x000027ec:    36f5378f    .7.6    DCD    922040207
        0x000027f0:    34f535f5    .5.4    DCD    888485365
        0x000027f4:    36ae37af    .7.6    DCD    917387183
        0x000027f8:    34ac35ad    .5.4    DCD    883701165
        0x000027fc:    126a0e90    ..j.    DCD    308940432
        0x00002800:    378f110f    ...7    DCD    932122895
        0x00002804:    358d368e    .6.5    DCD    898446990
        0x00002808:    0e90348c    .4..    DCD    244331660
        0x0000280c:    32071272    r..2    DCD    839324274
        0x00002810:    f53745ef    .E7.    DCD    4114040303
        0x00002814:    3645ee37    7.E6    DCD    910552631
        0x00002818:    45ed36f5    .6.E    DCD    1173174005
        0x0000281c:    ec35f535    5.5.    DCD    3962959157
        0x00002820:    34f53445    E4.4    DCD    888484933
        0x00002824:    f522f5e4    ..".    DCD    4112709092
        0x00002828:    31378523    #.71    DCD    825722147
        0x0000282c:    85303685    .60.    DCD    2234529413
        0x00002830:    34852f35    5/.4    DCD    881143605
        0x00002834:    c50d122e    ....    DCD    3305968174
        0x00002838:    f522f5e4    ..".    DCD    4112709092
        0x0000283c:    720e9023    #..r    DCD    1913557027
        0x00002840:    12050f12    ....    DCD    302321426
        0x00002844:    f5e4c50d    ....    DCD    4125410573
        0x00002848:    9023f522    ".#.    DCD    2418275618
        0x0000284c:    0f126e0e    .n..    DCD    252866062
        0x00002850:    c50d0205    ....    DCD    3305964037
        0x00002854:    36af35ae    .5.6    DCD    917452206
        0x00002858:    c3edfde4    ....    DCD    3287154148
        0x0000285c:    33503795    .7P3    DCD    860895125
        0x00002860:    e4520f12    ..R.    DCD    3830583058
        0x00002864:    7438f593    ..8t    DCD    1949889939
        0x00002868:    39f59301    ...9    DCD    972395265
        0x0000286c:    23603845    E8`#    DCD    593508421
        0x00002870:    85823985    .9..    DCD    2239904133
        0x00002874:    fce08338    8...    DCD    4242572088
        0x00002878:    74520f12    ..Rt    DCD    1951534866
        0x0000287c:    04529303    ..R.    DCD    72520451
        0x00002880:    74520f12    ..Rt    DCD    1951534866
        0x00002884:    04429302    ..B.    DCD    71471874
        0x00002888:    85823985    .9..    DCD    2239904133
        0x0000288c:    f0ec8338    8...    DCD    4042031928
        0x00002890:    22c7800d    ..."    DCD    583499789
        0x00002894:    3192afa2    ...1    DCD    831696802
        0x00002898:    23e5afc2    ...#    DCD    602255298
        0x0000289c:    0e902245    E"..    DCD    244326981
        0x000028a0:    120b605d    ]`..    DCD    302735453
        0x000028a4:    f5e0470f    .G..    DCD    4125116175
        0x000028a8:    2df5e02c    ,..-    DCD    771088428
        0x000028ac:    0f120f80    ....    DCD    252841856
        0x000028b0:    f030e547    G.0.    DCD    4029736263
        0x000028b4:    125f0e90    .._.    DCD    308219536
        0x000028b8:    31e5470f    .G.1    DCD    837109519
        0x000028bc:    9231a2f0    ..1.    DCD    2452726512
        0x000028c0:    7f7822af    ."x.    DCD    2138579631
        0x000028c4:    fdd8f6e4    ....    DCD    4258854628
        0x000028c8:    02cb8175    u...    DCD    46891381
        0x000028cc:    11009f0c    ....    DCD    285253388
        0x000028d0:    33162505    .%.3    DCD    857089285
        0x000028d4:    6f725002    .Pro    DCD    1869762562
        0x000028d8:    20746966    fit     DCD    544500070
        0x000028dc:    10001420     ...    DCD    268440608
        0x000028e0:    1a405600    .V@.    DCD    440423936
        0x000028e4:    007e2930    0)~.    DCD    8268080
        0x000028e8:    df200430    0. .    DCD    3743417392
        0x000028ec:    bf400530    0.@.    DCD    3208643888
        0x000028f0:    fd000350    P...    DCD    4244636496
        0x000028f4:    fe012750    P'..    DCD    4261488464
        0x000028f8:    00110060    `...    DCD    1114208
        0x000028fc:    0030053f    ?.0.    DCD    3147071
        0x00002900:    0022063f    ?.".    DCD    2229823
        0x00002904:    002a013f    ?.*.    DCD    2752831
        0x00002908:    0000023f    ?...    DCD    575
        0x0000290c:    00070636    6...    DCD    460342
        0x00002910:    f00f0b3f    ?...    DCD    4027517759
        0x00002914:    00000000    ....    DCD    0
        0x00002918:    bf400130    0.@.    DCD    3208642864
        0x0000291c:    bf000130    0...    DCD    3204448560
        0x00002920:    00702930    0)p.    DCD    7350576
        0x00002924:    ff00003a    :...    DCD    4278190138
        0x00002928:    ff00003a    :...    DCD    4278190138
        0x0000292c:    02360336    6.6.    DCD    37094198
        0x00002930:    20584441    ADX     DCD    542655553
        0x00002934:    040a1018    ....    DCD    67768344
        0x00002938:    ff030004    ....    DCD    4278386692
        0x0000293c:    80000064    d...    DCD    2147483748
        0x00002940:    00000000    ....    DCD    0
        0x00002944:    04020000    ....    DCD    67239936
        0x00002948:    98030006    ....    DCD    2550333446
        0x0000294c:    3c50cc00    ..P<    DCD    1011928064
        0x00002950:    0c0c1e28    (...    DCD    202120744
        0x00002954:    0c100000    ....    DCD    202375168
        0x00002958:    6e0c0410    ...n    DCD    1846281232
        0x0000295c:    a5000506    ....    DCD    2768241926
        0x00002960:    e6bc785a    Zx..    DCD    3871111258
        0x00002964:    e6ff08d3    ....    DCD    3875473619
        0x00002968:    eff88064    d...    DCD    4026040420
        0x0000296c:    22988064    d.."    DCD    580419684
        0x00002970:    007eff93    ..~.    DCD    8322963
        0x00002974:    e608fce6    ....    DCD    3859348710
        0x00002978:    8a0512fd    ....    DCD    2315588349
        0x0000297c:    fce6bf78    x...    DCD    4242980728
        0x00002980:    d3fde608    ....    DCD    3556632072
        0x00002984:    9cee9def    ....    DCD    2632883695
        0x00002988:    d3bb7822    "x..    DCD    3552278562
        0x0000298c:    948064e6    .d..    DCD    2491442406
        0x00002990:    e0252280    ."%.    DCD    3760530048
        0x00002994:    e6f80a24    $...    DCD    3875015204
        0x00002998:    ffe608fe    ....    DCD    4293265662
        0x0000299c:    c201d222    "...    DCD    3254899234
        0x000029a0:    1ff5e402    ....    DCD    536208386
        0x000029a4:    34d21ef5    ...4    DCD    886185717
        0x000029a8:    35d232d2    .2.5    DCD    902968018
        0x000029ac:    02c201d2    ....    DCD    46268882
        0x000029b0:    1ef51ff5    ....    DCD    519380981
        0x000029b4:    32d234d2    .4.2    DCD    852636882
        0x000029b8:    e4fd2d22    "-..    DCD    3841797410
        0x000029bc:    93e4fc33    3...    DCD    2481257523
        0x000029c0:    edd3fbfe    ....    DCD    3990092798
        0x000029c4:    f880749b    .t..    DCD    4169168027
        0x000029c8:    8f22986c    l.".    DCD    2401409132
        0x000029cc:    8d3a8e3b    ;.:.    DCD    2369424955
        0x000029d0:    22388c39    9.8"    DCD    574131257
        0x000029d4:    8f320712    ..2.    DCD    2402420498
        0x000029d8:    8d308e31    1.0.    DCD    2368769585
        0x000029dc:    222e8c2f    /.."    DCD    573475887
        0x000029e0:    02f8f993    ....    DCD    49871251
        0x000029e4:    0e901f07    ....    DCD    244326151
        0x000029e8:    32071281    ...2    DCD    839324289
        0x000029ec:    458e468f    .F.E    DCD    1166952079
        0x000029f0:    438c448d    .D.C    DCD    1133266061
        0x000029f4:    063006d2    ..0.    DCD    103810770
        0x000029f8:    0180d303    ....    DCD    25219843
        0x000029fc:    220e92c3    ..."    DCD    571380419
        0x00002a00:    83c0e0c0    ....    DCD    2210455744
        0x00002a04:    3f9082c0    ...?    DCD    1066435264
        0x00002a08:    33f5e00d    ...3    DCD    871751693
        0x00002a0c:    d0f033e5    .3..    DCD    3505402853
        0x00002a10:    d083d082    ....    DCD    3498299522
        0x00002a14:    93e432e0    .2..    DCD    2481205984
        0x00002a18:    930174fe    .t..    DCD    2466346238
        0x00002a1c:    838e82f5    ....    DCD    2207154933
        0x00002a20:    8e828f22    "...    DCD    2390920994
        0x00002a24:    04f07583    .u..    DCD    82867587
        0x00002a28:    5b0702ed    ...[    DCD    1527186157
    OV5640_LIGHTMODE_TBL
        0x00002a2c:    04000400    ....    DCD    67109888
        0x00002a30:    0400        ..      DCW    1024
        0x00002a32:    00          .       DCB    0
    OV5640_SATURATION_TBL
        0x00002a33:    1a          .       DCB    26
        0x00002a34:    80828066    f...    DCD    2156036198
        0x00002a38:    02          .       DCB    2
    RGB565_QVGA
        0x00002a39:    321203      2..     DCB    50,18,3
        0x00002a3c:    38010838    8..8    DCD    939591736
        0x00002a40:    0a384009    .@8.    DCD    171458569
        0x00002a44:    f00b3800    .8..    DCD    4027267072
        0x00002a48:    38001038    8..8    DCD    939528248
        0x00002a4c:    12381011    ..8.    DCD    305664017
        0x00002a50:    04133800    .8..    DCD    68368384
        0x00002a54:    32131232    2..2    DCD    840110642
        0x00002a58:    0000a312    ....    DCD    41746
    Region$$Table$$Base
        0x00002a5c:    00002a7c    |*..    DCD    10876
        0x00002a60:    20000000    ...     DCD    536870912
        0x00002a64:    0000000c    ....    DCD    12
        0x00002a68:    000010ac    ....    DCD    4268
        0x00002a6c:    00002a88    .*..    DCD    10888
        0x00002a70:    2000000c    ...     DCD    536870924
        0x00002a74:    00000414    ....    DCD    1044
        0x00002a78:    000010bc    ....    DCD    4284
    Region$$Table$$Limit

====================================

** Section #2

    Name        : RW_IRAM1
    Type        : SHT_PROGBITS (0x00000001)
    Flags       : SHF_ALLOC + SHF_WRITE (0x00000003)
    Addr        : 0x20000000
    File Offset : 10928 (0x2ab0)
    Size        : 12 bytes (0xc)
    Link        : SHN_UNDEF
    Info        : 0
    Alignment   : 4
    Entry Size  : 0


====================================

** Section #3

    Name        : RW_IRAM1
    Type        : SHT_NOBITS (0x00000008)
    Flags       : SHF_ALLOC + SHF_WRITE (0x00000003)
    Addr        : 0x2000000c
    File Offset : 10940 (0x2abc)
    Size        : 1044 bytes (0x414)
    Link        : SHN_UNDEF
    Info        : 0
    Alignment   : 8
    Entry Size  : 0


====================================

** Section #4

    Name        : .debug_abbrev
    Type        : SHT_PROGBITS (0x00000001)
    Flags       : None (0x00000000)
    Addr        : 0x00000000
    File Offset : 10940 (0x2abc)
    Size        : 1476 bytes (0x5c4)
    Link        : SHN_UNDEF
    Info        : 0
    Alignment   : 1
    Entry Size  : 0


====================================

** Section #5

    Name        : .debug_frame
    Type        : SHT_PROGBITS (0x00000001)
    Flags       : None (0x00000000)
    Addr        : 0x00000000
    File Offset : 12416 (0x3080)
    Size        : 2212 bytes (0x8a4)
    Link        : SHN_UNDEF
    Info        : 0
    Alignment   : 1
    Entry Size  : 0


====================================

** Section #6

    Name        : .debug_info
    Type        : SHT_PROGBITS (0x00000001)
    Flags       : None (0x00000000)
    Addr        : 0x00000000
    File Offset : 14628 (0x3924)
    Size        : 22368 bytes (0x5760)
    Link        : SHN_UNDEF
    Info        : 0
    Alignment   : 1
    Entry Size  : 0


====================================

** Section #7

    Name        : .debug_line
    Type        : SHT_PROGBITS (0x00000001)
    Flags       : None (0x00000000)
    Addr        : 0x00000000
    File Offset : 36996 (0x9084)
    Size        : 8988 bytes (0x231c)
    Link        : SHN_UNDEF
    Info        : 0
    Alignment   : 1
    Entry Size  : 0


====================================

** Section #8

    Name        : .debug_loc
    Type        : SHT_PROGBITS (0x00000001)
    Flags       : None (0x00000000)
    Addr        : 0x00000000
    File Offset : 45984 (0xb3a0)
    Size        : 3160 bytes (0xc58)
    Link        : SHN_UNDEF
    Info        : 0
    Alignment   : 1
    Entry Size  : 0


====================================

** Section #9

    Name        : .debug_macinfo
    Type        : SHT_PROGBITS (0x00000001)
    Flags       : None (0x00000000)
    Addr        : 0x00000000
    File Offset : 49144 (0xbff8)
    Size        : 13148 bytes (0x335c)
    Link        : SHN_UNDEF
    Info        : 0
    Alignment   : 1
    Entry Size  : 0


====================================

** Section #10

    Name        : .debug_pubnames
    Type        : SHT_PROGBITS (0x00000001)
    Flags       : None (0x00000000)
    Addr        : 0x00000000
    File Offset : 62292 (0xf354)
    Size        : 2593 bytes (0xa21)
    Link        : SHN_UNDEF
    Info        : 0
    Alignment   : 1
    Entry Size  : 0


====================================

** Section #11

    Name        : .symtab
    Type        : SHT_SYMTAB (0x00000002)
    Flags       : None (0x00000000)
    Addr        : 0x00000000
    File Offset : 64888 (0xfd78)
    Size        : 5360 bytes (0x14f0)
    Link        : Section 12 (.strtab)
    Info        : Last local symbol no = 218
    Alignment   : 4
    Entry Size  : 16


====================================

** Section #12

    Name        : .strtab
    Type        : SHT_STRTAB (0x00000003)
    Flags       : None (0x00000000)
    Addr        : 0x00000000
    File Offset : 70248 (0x11268)
    Size        : 3848 bytes (0xf08)
    Link        : SHN_UNDEF
    Info        : 0
    Alignment   : 1
    Entry Size  : 0


====================================

** Section #13

    Name        : .note
    Type        : SHT_NOTE (0x00000007)
    Flags       : None (0x00000000)
    Addr        : 0x00000000
    File Offset : 74096 (0x12170)
    Size        : 28 bytes (0x1c)
    Link        : SHN_UNDEF
    Info        : 0
    Alignment   : 4
    Entry Size  : 0

        Section     Segment
    ====================================

              1           0
              2           0
              3           0

====================================

** Section #14

    Name        : .comment
    Type        : SHT_PROGBITS (0x00000001)
    Flags       : None (0x00000000)
    Addr        : 0x00000000
    File Offset : 74124 (0x1218c)
    Size        : 6848 bytes (0x1ac0)
    Link        : SHN_UNDEF
    Info        : 0
    Alignment   : 1
    Entry Size  : 0

    Component: ARM Compiler 5.06 update 6 (build 750) Tool: armlink [4d35ed]
    ArmLink --strict --library_type=microlib --callgraph --load_addr_map_info --map --symbols --xref --diag_suppress=9931 --cpu=Cortex-M0 --list=.\Listings\cm0.map --output=.\cm0.axf --scatter=.\cm0.sct --info=summarysizes,sizes,totals,unused,veneers

    D:\Program Files\Keil_V5\ARM\ARMCC\Bin\..\lib\armlib\h_p.l
    D:\Program Files\Keil_V5\ARM\ARMCC\Bin\..\lib\armlib\m_ps.l
    D:\Program Files\Keil_V5\ARM\ARMCC\Bin\..\lib\armlib\mc_p.l
    D:\Program Files\Keil_V5\ARM\ARMCC\Bin\..\lib\armlib\mf_p.l
    D:\Program Files\Keil_V5\ARM\ARMCC\Bin\..\lib\armlib\vfpsupport.l
    Input Comments:
    
    cortexm0_driver.o
    
    Component: ARM Compiler 5.06 update 6 (build 750) Tool: armlink [4d35ed]
    armlink --partial --no_add_relocs_to_undefined --no_generate_mapping_symbols --diag_suppress=9931,9931,6642 --cpu=Cortex-M0 --fpu=SoftVFP --output=.\cortexm0_driver.o --vfemode=force

    Input Comments:
    
    p3ac8-3
    
    Component: ARM Compiler 5.06 update 6 (build 750) Tool: armasm [4d35ec]
    armasm --debug --diag_suppress=9931,9931,1602,1073 --cpu=Cortex-M0 --fpu=SoftVFP --apcs=/interwork/interwork --no_divide 
    cortexm0_driver.o
    
    Component: ARM Compiler 5.06 update 6 (build 750) Tool: ArmCC [4d3637]
    ArmCC --c99 --split_sections --debug -c --gnu -o.\cortexm0_driver.o --depend=.\cortexm0_driver.d --cpu=Cortex-M0 --apcs=interwork -O0 --diag_suppress=9931 -I..\Software -I.\RTE\_Target_1 -I"D:\Program Files\Keil_V5\Arm\Packs\Keil\V2M-MPS2_CMx_BSP\1.7.1\Device\CMSDK_CM0\Include" -I"D:\Program Files\Keil_V5\ARM\CMSIS\Include" -D__MICROLIB -D__UVISION_VERSION=528 -DCMSDK_CM0 --omf_browse=.\cortexm0_driver.crf ..\Software\CortexM0_driver.c
    
    
    handler.o
    
    Component: ARM Compiler 5.06 update 6 (build 750) Tool: armlink [4d35ed]
    armlink --partial --no_add_relocs_to_undefined --no_generate_mapping_symbols --diag_suppress=9931,9931,6642 --cpu=Cortex-M0 --fpu=SoftVFP --output=.\handler.o --vfemode=force

    Input Comments:
    
    p458-3
    
    Component: ARM Compiler 5.06 update 6 (build 750) Tool: armasm [4d35ec]
    armasm --debug --diag_suppress=9931,9931,1602,1073 --cpu=Cortex-M0 --fpu=SoftVFP --apcs=/interwork/interwork --no_divide 
    handler.o
    
    Component: ARM Compiler 5.06 update 6 (build 750) Tool: ArmCC [4d3637]
    ArmCC --c99 --split_sections --debug -c --gnu -o.\handler.o --depend=.\handler.d --cpu=Cortex-M0 --apcs=interwork -O0 --diag_suppress=9931 -I..\Software -I.\RTE\_Target_1 -I"D:\Program Files\Keil_V5\Arm\Packs\Keil\V2M-MPS2_CMx_BSP\1.7.1\Device\CMSDK_CM0\Include" -I"D:\Program Files\Keil_V5\ARM\CMSIS\Include" -D__MICROLIB -D__UVISION_VERSION=528 -DCMSDK_CM0 --omf_browse=.\handler.crf ..\Software\handler.c
    
    
    
    main.o
    
    Component: ARM Compiler 5.06 update 6 (build 750) Tool: armlink [4d35ed]
    armlink --partial --no_add_relocs_to_undefined --no_generate_mapping_symbols --diag_suppress=9931,9931,6642 --cpu=Cortex-M0 --fpu=SoftVFP --output=.\main.o --vfemode=force

    Input Comments:
    
    pca0-3
    
    Component: ARM Compiler 5.06 update 6 (build 750) Tool: armasm [4d35ec]
    armasm --debug --diag_suppress=9931,9931,1602,1073 --cpu=Cortex-M0 --fpu=SoftVFP --apcs=/interwork/interwork --no_divide 
    main.o
    
    Component: ARM Compiler 5.06 update 6 (build 750) Tool: ArmCC [4d3637]
    ArmCC --c99 --split_sections --debug -c --gnu -o.\main.o --depend=.\main.d --cpu=Cortex-M0 --apcs=interwork -O0 --diag_suppress=9931 -I..\Software -I.\RTE\_Target_1 -I"D:\Program Files\Keil_V5\Arm\Packs\Keil\V2M-MPS2_CMx_BSP\1.7.1\Device\CMSDK_CM0\Include" -I"D:\Program Files\Keil_V5\ARM\CMSIS\Include" -D__MICROLIB -D__UVISION_VERSION=528 -DCMSDK_CM0 --omf_browse=.\main.crf ..\Software\main.c
    
    
    
    
    
    retarget.o
    
    Component: ARM Compiler 5.06 update 6 (build 750) Tool: armlink [4d35ed]
    armlink --partial --no_add_relocs_to_undefined --no_generate_mapping_symbols --diag_suppress=9931,9931,6642 --cpu=Cortex-M0 --fpu=SoftVFP --output=.\retarget.o --vfemode=force

    Input Comments:
    
    p24f0-3
    
    Component: ARM Compiler 5.06 update 6 (build 750) Tool: armasm [4d35ec]
    armasm --debug --diag_suppress=9931,9931,1602,1073 --cpu=Cortex-M0 --fpu=SoftVFP --apcs=/interwork/interwork --no_divide 
    retarget.o
    
    Component: ARM Compiler 5.06 update 6 (build 750) Tool: ArmCC [4d3637]
    ArmCC --c99 --split_sections --debug -c --gnu -o.\retarget.o --depend=.\retarget.d --cpu=Cortex-M0 --apcs=interwork -O0 --diag_suppress=9931 -I..\Software -I.\RTE\_Target_1 -I"D:\Program Files\Keil_V5\Arm\Packs\Keil\V2M-MPS2_CMx_BSP\1.7.1\Device\CMSDK_CM0\Include" -I"D:\Program Files\Keil_V5\ARM\CMSIS\Include" -D__MICROLIB -D__UVISION_VERSION=528 -DCMSDK_CM0 --omf_browse=.\retarget.crf ..\Software\Retarget.c
    
    
    
    
    startup_cm0ds.o
    
    Component: ARM Compiler 5.06 update 6 (build 750) Tool: armasm [4d35ec]
    ArmAsm --debug --xref --diag_suppress=9931 --cpu=Cortex-M0 --apcs=interwork --depend=.\startup_cm0ds.d  -I..\Software -I..\Keil -I.\RTE\_Target_1 -I"D:\Program Files\Keil_V5\Arm\Packs\Keil\V2M-MPS2_CMx_BSP\1.7.1\Device\CMSDK_CM0\Include" -I"D:
    
    
    system.o
    
    Component: ARM Compiler 5.06 update 6 (build 750) Tool: armlink [4d35ed]
    armlink --partial --no_add_relocs_to_undefined --no_generate_mapping_symbols --diag_suppress=9931,9931,6642 --cpu=Cortex-M0 --fpu=SoftVFP --output=.\system.o --vfemode=force

    Input Comments:
    
    p3bb8-3
    
    Component: ARM Compiler 5.06 update 6 (build 750) Tool: armasm [4d35ec]
    armasm --debug --diag_suppress=9931,9931,1602,1073 --cpu=Cortex-M0 --fpu=SoftVFP --apcs=/interwork/interwork --no_divide 
    system.o
    
    Component: ARM Compiler 5.06 update 6 (build 750) Tool: ArmCC [4d3637]
    ArmCC --c99 --split_sections --debug -c --gnu -o.\system.o --depend=.\system.d --cpu=Cortex-M0 --apcs=interwork -O0 --diag_suppress=9931 -I..\Software -I.\RTE\_Target_1 -I"D:\Program Files\Keil_V5\Arm\Packs\Keil\V2M-MPS2_CMx_BSP\1.7.1\Device\CMSDK_CM0\Include" -I"D:\Program Files\Keil_V5\ARM\CMSIS\Include" -D__MICROLIB -D__UVISION_VERSION=528 -DCMSDK_CM0 --omf_browse=.\system.crf ..\Software\system.c
    
    
    
    
    camera.o
    
    Component: ARM Compiler 5.06 update 6 (build 750) Tool: armlink [4d35ed]
    armlink --partial --no_add_relocs_to_undefined --no_generate_mapping_symbols --diag_suppress=9931,9931,6642 --cpu=Cortex-M0 --fpu=SoftVFP --output=.\camera.o --vfemode=force

    Input Comments:
    
    p29d8-3
    
    Component: ARM Compiler 5.06 update 6 (build 750) Tool: armasm [4d35ec]
    armasm --debug --diag_suppress=9931,9931,1602,1073 --cpu=Cortex-M0 --fpu=SoftVFP --apcs=/interwork/interwork --no_divide 
    camera.o
    
    Component: ARM Compiler 5.06 update 6 (build 750) Tool: ArmCC [4d3637]
    ArmCC --c99 --split_sections --debug -c --gnu -o.\camera.o --depend=.\camera.d --cpu=Cortex-M0 --apcs=interwork -O0 --diag_suppress=9931 -I..\Software -I.\RTE\_Target_1 -I"D:\Program Files\Keil_V5\Arm\Packs\Keil\V2M-MPS2_CMx_BSP\1.7.1\Device\CMSDK_CM0\Include" -I"D:\Program Files\Keil_V5\ARM\CMSIS\Include" -D__MICROLIB -D__UVISION_VERSION=528 -DCMSDK_CM0 --omf_browse=.\camera.crf ..\Software\camera.c
    
    
    
    
    
    

====================================

** Section #15

    Name        : .shstrtab
    Type        : SHT_STRTAB (0x00000003)
    Flags       : None (0x00000000)
    Addr        : 0x00000000
    File Offset : 80972 (0x13c4c)
    Size        : 156 bytes (0x9c)
    Link        : SHN_UNDEF
    Info        : 0
    Alignment   : 1
    Entry Size  : 0


====================================

